///////////////////////////////////////////////////////////////////////////////
//                                                                            /
// IAR C/C++ Compiler V8.10.3.10338/W32 for 8051        10/Mar/2018  23:31:01 /
// Copyright 2004-2011 IAR Systems AB.                                        /
//                                                                            /
//    Core               =  plain                                             /
//    Code model         =  banked                                            /
//    Data model         =  large                                             /
//    Calling convention =  xdata reentrant                                   /
//    Constant location  =  data_rom                                          /
//    Dptr setup         =  1,16                                              /
//    Source file        =  E:\Coding\IAR\RFTag\ZigBeeDev\5_ZStack-2.5.1a\Com /
//                          ponents\mt\MT_UART.c                              /
//    Command line       =  -f E:\Coding\IAR\RFTag\ZigBeeDev\5_ZStack-2.5.1a\ /
//                          Projects\zstack\Samples\SampleApp\CC2530DB\..\..\ /
//                          ..\Tools\CC2530DB\f8wRouter.cfg (-DCPU32MHZ       /
//                          -DROOT=__near_func -DMAC_CFG_APP_PENDING_QUEUE=TR /
//                          UE -DMAC_CFG_TX_DATA_MAX=5 -DMAC_CFG_TX_MAX=8     /
//                          -DMAC_CFG_RX_MAX=5 -DRTR_NWK) -f                  /
//                          E:\Coding\IAR\RFTag\ZigBeeDev\5_ZStack-2.5.1a\Pro /
//                          jects\zstack\Samples\SampleApp\CC2530DB\..\..\..\ /
//                          Tools\CC2530DB\f8wConfig.cfg (-DZIGBEEPRO         /
//                          -DSECURE=0 -DZG_SECURE_DYNAMIC=0 -DREFLECTOR      /
//                          -DDEFAULT_CHANLIST=0x00000800                     /
//                          -DZDAPP_CONFIG_PAN_ID=0xFFF1                      /
//                          -DNWK_START_DELAY=100 -DEXTENDED_JOINING_RANDOM_M /
//                          ASK=0x007F -DBEACON_REQUEST_DELAY=100             /
//                          -DBEACON_REQ_DELAY_MASK=0x00FF                    /
//                          -DLINK_STATUS_JITTER_MASK=0x007F                  /
//                          -DROUTE_EXPIRY_TIME=30 -DAPSC_ACK_WAIT_DURATION_P /
//                          OLLED=3000 -DNWK_INDIRECT_MSG_TIMEOUT=7           /
//                          -DMAX_RREQ_ENTRIES=8 -DAPSC_MAX_FRAME_RETRIES=3   /
//                          -DNWK_MAX_DATA_RETRIES=2                          /
//                          -DMAX_POLL_FAILURE_RETRIES=2 -DMAX_BCAST=9        /
//                          -DAPS_MAX_GROUPS=16 -DMAX_RTG_ENTRIES=40          /
//                          -DNWK_MAX_BINDING_ENTRIES=4                       /
//                          -DMAX_BINDING_CLUSTER_IDS=4                       /
//                          "-DDEFAULT_KEY={0x01, 0x03, 0x05, 0x07, 0x09,     /
//                          0x0B, 0x0D, 0x0F, 0x00, 0x02, 0x04, 0x06, 0x08,   /
//                          0x0A, 0x0C, 0x0D}" -DMAC_MAX_FRAME_SIZE=116       /
//                          -DZDNWKMGR_MIN_TRANSMISSIONS=20 "-DCONST=const    /
//                          __code" -DGENERIC=__generic                       /
//                          -DRFD_RCVC_ALWAYS_ON=FALSE -DPOLL_RATE=1000       /
//                          -DQUEUED_POLL_RATE=100 -DRESPONSE_POLL_RATE=100)  /
//                          -DREJOIN_POLL_RATE=440 E:\Coding\IAR\RFTag\ZigBee /
//                          Dev\5_ZStack-2.5.1a\Components\mt\MT_UART.c -D    /
//                          ZTOOL_P1 -D xMT_TASK -D xMT_SYS_FUNC -D           /
//                          xMT_ZDO_FUNC -D LCD_SUPPORTED=DEBUG -lC           /
//                          E:\Coding\IAR\RFTag\ZigBeeDev\5_ZStack-2.5.1a\Pro /
//                          jects\zstack\Samples\SampleApp\CC2530DB\RouterEB\ /
//                          List\ -lA E:\Coding\IAR\RFTag\ZigBeeDev\5_ZStack- /
//                          2.5.1a\Projects\zstack\Samples\SampleApp\CC2530DB /
//                          \RouterEB\List\ --diag_suppress Pe001,Pa010 -o    /
//                          E:\Coding\IAR\RFTag\ZigBeeDev\5_ZStack-2.5.1a\Pro /
//                          jects\zstack\Samples\SampleApp\CC2530DB\RouterEB\ /
//                          Obj\ -e --no_code_motion --debug --core=plain     /
//                          --dptr=16,1 --data_model=large                    /
//                          --code_model=banked --calling_convention=xdata_re /
//                          entrant --place_constants=data_rom                /
//                          --nr_virtual_regs 16 -I                           /
//                          E:\Coding\IAR\RFTag\ZigBeeDev\5_ZStack-2.5.1a\Pro /
//                          jects\zstack\Samples\SampleApp\CC2530DB\ -I       /
//                          E:\Coding\IAR\RFTag\ZigBeeDev\5_ZStack-2.5.1a\Pro /
//                          jects\zstack\Samples\SampleApp\CC2530DB\..\Source /
//                          \ -I E:\Coding\IAR\RFTag\ZigBeeDev\5_ZStack-2.5.1 /
//                          a\Projects\zstack\Samples\SampleApp\CC2530DB\..\. /
//                          .\..\ZMain\TI2530DB\ -I                           /
//                          E:\Coding\IAR\RFTag\ZigBeeDev\5_ZStack-2.5.1a\Pro /
//                          jects\zstack\Samples\SampleApp\CC2530DB\..\..\..\ /
//                          ..\..\Components\hal\include\ -I                  /
//                          E:\Coding\IAR\RFTag\ZigBeeDev\5_ZStack-2.5.1a\Pro /
//                          jects\zstack\Samples\SampleApp\CC2530DB\..\..\..\ /
//                          ..\..\Components\hal\target\CC2530EB\ -I          /
//                          E:\Coding\IAR\RFTag\ZigBeeDev\5_ZStack-2.5.1a\Pro /
//                          jects\zstack\Samples\SampleApp\CC2530DB\..\..\..\ /
//                          ..\..\Components\mac\include\ -I                  /
//                          E:\Coding\IAR\RFTag\ZigBeeDev\5_ZStack-2.5.1a\Pro /
//                          jects\zstack\Samples\SampleApp\CC2530DB\..\..\..\ /
//                          ..\..\Components\mac\high_level\ -I               /
//                          E:\Coding\IAR\RFTag\ZigBeeDev\5_ZStack-2.5.1a\Pro /
//                          jects\zstack\Samples\SampleApp\CC2530DB\..\..\..\ /
//                          ..\..\Components\mac\low_level\srf04\ -I          /
//                          E:\Coding\IAR\RFTag\ZigBeeDev\5_ZStack-2.5.1a\Pro /
//                          jects\zstack\Samples\SampleApp\CC2530DB\..\..\..\ /
//                          ..\..\Components\mac\low_level\srf04\single_chip\ /
//                           -I E:\Coding\IAR\RFTag\ZigBeeDev\5_ZStack-2.5.1a /
//                          \Projects\zstack\Samples\SampleApp\CC2530DB\..\.. /
//                          \..\..\..\Components\mt\ -I                       /
//                          E:\Coding\IAR\RFTag\ZigBeeDev\5_ZStack-2.5.1a\Pro /
//                          jects\zstack\Samples\SampleApp\CC2530DB\..\..\..\ /
//                          ..\..\Components\osal\include\ -I                 /
//                          E:\Coding\IAR\RFTag\ZigBeeDev\5_ZStack-2.5.1a\Pro /
//                          jects\zstack\Samples\SampleApp\CC2530DB\..\..\..\ /
//                          ..\..\Components\services\saddr\ -I               /
//                          E:\Coding\IAR\RFTag\ZigBeeDev\5_ZStack-2.5.1a\Pro /
//                          jects\zstack\Samples\SampleApp\CC2530DB\..\..\..\ /
//                          ..\..\Components\services\sdata\ -I               /
//                          E:\Coding\IAR\RFTag\ZigBeeDev\5_ZStack-2.5.1a\Pro /
//                          jects\zstack\Samples\SampleApp\CC2530DB\..\..\..\ /
//                          ..\..\Components\stack\af\ -I                     /
//                          E:\Coding\IAR\RFTag\ZigBeeDev\5_ZStack-2.5.1a\Pro /
//                          jects\zstack\Samples\SampleApp\CC2530DB\..\..\..\ /
//                          ..\..\Components\stack\nwk\ -I                    /
//                          E:\Coding\IAR\RFTag\ZigBeeDev\5_ZStack-2.5.1a\Pro /
//                          jects\zstack\Samples\SampleApp\CC2530DB\..\..\..\ /
//                          ..\..\Components\stack\sapi\ -I                   /
//                          E:\Coding\IAR\RFTag\ZigBeeDev\5_ZStack-2.5.1a\Pro /
//                          jects\zstack\Samples\SampleApp\CC2530DB\..\..\..\ /
//                          ..\..\Components\stack\sec\ -I                    /
//                          E:\Coding\IAR\RFTag\ZigBeeDev\5_ZStack-2.5.1a\Pro /
//                          jects\zstack\Samples\SampleApp\CC2530DB\..\..\..\ /
//                          ..\..\Components\stack\sys\ -I                    /
//                          E:\Coding\IAR\RFTag\ZigBeeDev\5_ZStack-2.5.1a\Pro /
//                          jects\zstack\Samples\SampleApp\CC2530DB\..\..\..\ /
//                          ..\..\Components\stack\zdo\ -I                    /
//                          E:\Coding\IAR\RFTag\ZigBeeDev\5_ZStack-2.5.1a\Pro /
//                          jects\zstack\Samples\SampleApp\CC2530DB\..\..\..\ /
//                          ..\..\Components\zmac\ -I                         /
//                          E:\Coding\IAR\RFTag\ZigBeeDev\5_ZStack-2.5.1a\Pro /
//                          jects\zstack\Samples\SampleApp\CC2530DB\..\..\..\ /
//                          ..\..\Components\zmac\f8w\ -Ohz                   /
//                          --require_prototypes                              /
//    List file          =  E:\Coding\IAR\RFTag\ZigBeeDev\5_ZStack-2.5.1a\Pro /
//                          jects\zstack\Samples\SampleApp\CC2530DB\RouterEB\ /
//                          List\MT_UART.s51                                  /
//                                                                            /
//                                                                            /
///////////////////////////////////////////////////////////////////////////////

        NAME MT_UART

        RTMODEL "__SystemLibrary", "CLib"
        RTMODEL "__calling_convention", "xdata_reentrant"
        RTMODEL "__code_model", "banked"
        RTMODEL "__core", "plain"
        RTMODEL "__data_model", "large"
        RTMODEL "__dptr_size", "16"
        RTMODEL "__extended_stack", "disabled"
        RTMODEL "__location_for_constants", "data"
        RTMODEL "__number_of_dptrs", "1"
        RTMODEL "__rt_version", "1"

        RSEG DOVERLAY:DATA:NOROOT(0)
        RSEG IOVERLAY:IDATA:NOROOT(0)
        RSEG ISTACK:IDATA:NOROOT(0)
        RSEG PSTACK:XDATA:NOROOT(0)
        RSEG XSTACK:XDATA:NOROOT(0)

        EXTERN ?ALLOC_XSTACK8
        EXTERN ?BANKED_ENTER_XDATA
        EXTERN ?BANKED_LEAVE_XDATA
        EXTERN ?BDISPATCH
        EXTERN ?BRET
        EXTERN ?DEALLOC_XSTACK8
        EXTERN ?V0
        EXTERN ?XSP
        EXTERN ?XSTACK_DISP0_8
        EXTERN __INIT_XDATA_Z

        PUBLIC ??MT_UartCalcFCS?relay
        FUNCTION ??MT_UartCalcFCS?relay,0203H
        PUBLIC ??MT_UartInit?relay
        FUNCTION ??MT_UartInit?relay,0203H
        PUBLIC ??MT_UartProcessZToolData?relay
        FUNCTION ??MT_UartProcessZToolData?relay,0203H
        PUBLIC ??MT_UartRegisterTaskID?relay
        FUNCTION ??MT_UartRegisterTaskID?relay,0203H
        PUBLIC App_TaskID
        PUBLIC CMD_Token
        PUBLIC FSC_Token
        PUBLIC LEN_Token
        PUBLIC MT_UartCalcFCS
        FUNCTION MT_UartCalcFCS,0203H
        ARGFRAME XSTACK, 0, STACK
        LOCFRAME ISTACK, 2, STACK
        PUBLIC MT_UartInit
        FUNCTION MT_UartInit,021203H
        ARGFRAME XSTACK, 0, STACK
        LOCFRAME ISTACK, 2, STACK
        LOCFRAME XSTACK, 29, STACK
        PUBLIC MT_UartProcessZToolData
        FUNCTION MT_UartProcessZToolData,021603H
        ARGFRAME XSTACK, 0, STACK
        LOCFRAME ISTACK, 1, STACK
        LOCFRAME XSTACK, 11, STACK
        PUBLIC MT_UartRegisterTaskID
        FUNCTION MT_UartRegisterTaskID,0203H
        ARGFRAME XSTACK, 0, STACK
        LOCFRAME ISTACK, 2, STACK
        PUBLIC POSI_Token
        PUBLIC pMsg
        PUBLIC state
        PUBLIC tempDataLen
        
        CFI Names cfiNames0
        CFI StackFrame CFA_SP SP IDATA
        CFI StackFrame CFA_PSP16 PSP16 XDATA
        CFI StackFrame CFA_XSP16 XSP16 XDATA
        CFI StaticOverlayFrame CFA_IOVERLAY IOVERLAY
        CFI StaticOverlayFrame CFA_DOVERLAY DOVERLAY
        CFI Resource `PSW.CY`:1, `B.BR0`:1, `B.BR1`:1, `B.BR2`:1, `B.BR3`:1
        CFI Resource `B.BR4`:1, `B.BR5`:1, `B.BR6`:1, `B.BR7`:1, `VB.BR8`:1
        CFI Resource `VB.BR9`:1, `VB.BR10`:1, `VB.BR11`:1, `VB.BR12`:1
        CFI Resource `VB.BR13`:1, `VB.BR14`:1, `VB.BR15`:1, VB:8, B:8, A:8
        CFI Resource PSW:8, DPL0:8, DPH0:8, R0:8, R1:8, R2:8, R3:8, R4:8, R5:8
        CFI Resource R6:8, R7:8, V0:8, V1:8, V2:8, V3:8, V4:8, V5:8, V6:8, V7:8
        CFI Resource V8:8, V9:8, V10:8, V11:8, V12:8, V13:8, V14:8, V15:8, SP:8
        CFI Resource PSPH:8, PSPL:8, PSP16:16, XSPH:8, XSPL:8, XSP16:16
        CFI VirtualResource ?RET:24
        CFI Resource ?BRET_EXT:8
        CFI VirtualResource ?RET_HIGH:8, ?RET_LOW:8
        CFI ResourceParts PSP16 PSPH, PSPL
        CFI ResourceParts XSP16 XSPH, XSPL
        CFI ResourceParts ?RET ?BRET_EXT, ?RET_HIGH, ?RET_LOW
        CFI EndNames cfiNames0
        
        CFI Common cfiCommon0 Using cfiNames0
        CFI CodeAlign 1
        CFI DataAlign -1
        CFI ReturnAddress ?RET CODE
        CFI CFA_DOVERLAY Used
        CFI CFA_IOVERLAY Used
        CFI CFA_SP SP+-3
        CFI CFA_PSP16 PSP16+0
        CFI CFA_XSP16 XSP16+0
        CFI `PSW.CY` SameValue
        CFI `B.BR0` SameValue
        CFI `B.BR1` SameValue
        CFI `B.BR2` SameValue
        CFI `B.BR3` SameValue
        CFI `B.BR4` SameValue
        CFI `B.BR5` SameValue
        CFI `B.BR6` SameValue
        CFI `B.BR7` SameValue
        CFI `VB.BR8` SameValue
        CFI `VB.BR9` SameValue
        CFI `VB.BR10` SameValue
        CFI `VB.BR11` SameValue
        CFI `VB.BR12` SameValue
        CFI `VB.BR13` SameValue
        CFI `VB.BR14` SameValue
        CFI `VB.BR15` SameValue
        CFI VB SameValue
        CFI B Undefined
        CFI A Undefined
        CFI PSW SameValue
        CFI DPL0 SameValue
        CFI DPH0 SameValue
        CFI R0 Undefined
        CFI R1 Undefined
        CFI R2 Undefined
        CFI R3 Undefined
        CFI R4 Undefined
        CFI R5 Undefined
        CFI R6 SameValue
        CFI R7 SameValue
        CFI V0 SameValue
        CFI V1 SameValue
        CFI V2 SameValue
        CFI V3 SameValue
        CFI V4 SameValue
        CFI V5 SameValue
        CFI V6 SameValue
        CFI V7 SameValue
        CFI V8 SameValue
        CFI V9 SameValue
        CFI V10 SameValue
        CFI V11 SameValue
        CFI V12 SameValue
        CFI V13 SameValue
        CFI V14 SameValue
        CFI V15 SameValue
        CFI PSPH Undefined
        CFI PSPL Undefined
        CFI XSPH Undefined
        CFI XSPL Undefined
        CFI ?RET Concat
        CFI ?BRET_EXT Frame(CFA_SP, 3)
        CFI ?RET_HIGH Frame(CFA_SP, 2)
        CFI ?RET_LOW Frame(CFA_SP, 1)
        CFI EndCommon cfiCommon0
        
        
        CFI Common cfiCommon1 Using cfiNames0
        CFI CodeAlign 1
        CFI DataAlign -1
        CFI ReturnAddress ?RET CODE
        CFI CFA_DOVERLAY Used
        CFI CFA_IOVERLAY Used
        CFI CFA_SP SP+-2
        CFI CFA_PSP16 PSP16+0
        CFI CFA_XSP16 XSP16+0
        CFI `PSW.CY` SameValue
        CFI `B.BR0` SameValue
        CFI `B.BR1` SameValue
        CFI `B.BR2` SameValue
        CFI `B.BR3` SameValue
        CFI `B.BR4` SameValue
        CFI `B.BR5` SameValue
        CFI `B.BR6` SameValue
        CFI `B.BR7` SameValue
        CFI `VB.BR8` SameValue
        CFI `VB.BR9` SameValue
        CFI `VB.BR10` SameValue
        CFI `VB.BR11` SameValue
        CFI `VB.BR12` SameValue
        CFI `VB.BR13` SameValue
        CFI `VB.BR14` SameValue
        CFI `VB.BR15` SameValue
        CFI VB SameValue
        CFI B SameValue
        CFI A SameValue
        CFI PSW SameValue
        CFI DPL0 SameValue
        CFI DPH0 SameValue
        CFI R0 SameValue
        CFI R1 SameValue
        CFI R2 SameValue
        CFI R3 SameValue
        CFI R4 SameValue
        CFI R5 SameValue
        CFI R6 SameValue
        CFI R7 SameValue
        CFI V0 SameValue
        CFI V1 SameValue
        CFI V2 SameValue
        CFI V3 SameValue
        CFI V4 SameValue
        CFI V5 SameValue
        CFI V6 SameValue
        CFI V7 SameValue
        CFI V8 SameValue
        CFI V9 SameValue
        CFI V10 SameValue
        CFI V11 SameValue
        CFI V12 SameValue
        CFI V13 SameValue
        CFI V14 SameValue
        CFI V15 SameValue
        CFI PSPH Undefined
        CFI PSPL Undefined
        CFI XSPH Undefined
        CFI XSPL Undefined
        CFI ?RET Concat
        CFI ?BRET_EXT SameValue
        CFI ?RET_HIGH Frame(CFA_SP, 2)
        CFI ?RET_LOW Frame(CFA_SP, 1)
        CFI EndCommon cfiCommon1
        
HalUARTOpen         SYMBOL "HalUARTOpen"
Hal_UART_RxBufLen   SYMBOL "Hal_UART_RxBufLen"
HalUARTRead         SYMBOL "HalUARTRead"
osal_msg_allocate   SYMBOL "osal_msg_allocate"
osal_msg_send       SYMBOL "osal_msg_send"
??HalUARTOpen?relay SYMBOL "?relay", HalUARTOpen
??HalUARTRead?relay SYMBOL "?relay", HalUARTRead
??Hal_UART_RxBufLen?relay SYMBOL "?relay", Hal_UART_RxBufLen
??osal_msg_allocate?relay SYMBOL "?relay", osal_msg_allocate
??osal_msg_send?relay SYMBOL "?relay", osal_msg_send
MT_UartCalcFCS      SYMBOL "MT_UartCalcFCS"
??MT_UartCalcFCS?relay SYMBOL "?relay", MT_UartCalcFCS
MT_UartInit         SYMBOL "MT_UartInit"
??MT_UartInit?relay SYMBOL "?relay", MT_UartInit
MT_UartProcessZToolData SYMBOL "MT_UartProcessZToolData"
??MT_UartProcessZToolData?relay SYMBOL "?relay", MT_UartProcessZToolData
MT_UartRegisterTaskID SYMBOL "MT_UartRegisterTaskID"
??MT_UartRegisterTaskID?relay SYMBOL "?relay", MT_UartRegisterTaskID

        EXTERN HalUARTOpen
        FUNCTION HalUARTOpen,0202H
        ARGFRAME ISTACK, 2, STACK
        ARGFRAME PSTACK, 0, STACK
        ARGFRAME XSTACK, 29, STACK
        ARGFRAME IOVERLAY, 0, STATIC
        ARGFRAME DOVERLAY, 0, STATIC
        EXTERN Hal_UART_RxBufLen
        FUNCTION Hal_UART_RxBufLen,0202H
        ARGFRAME ISTACK, 0, STACK
        ARGFRAME PSTACK, 0, STACK
        ARGFRAME XSTACK, 11, STACK
        ARGFRAME IOVERLAY, 0, STATIC
        ARGFRAME DOVERLAY, 0, STATIC
        EXTERN HalUARTRead
        FUNCTION HalUARTRead,0202H
        ARGFRAME ISTACK, 0, STACK
        ARGFRAME PSTACK, 0, STACK
        ARGFRAME XSTACK, 11, STACK
        ARGFRAME IOVERLAY, 0, STATIC
        ARGFRAME DOVERLAY, 0, STATIC
        EXTERN osal_msg_allocate
        FUNCTION osal_msg_allocate,0202H
        ARGFRAME ISTACK, 0, STACK
        ARGFRAME PSTACK, 0, STACK
        ARGFRAME XSTACK, 11, STACK
        ARGFRAME IOVERLAY, 0, STATIC
        ARGFRAME DOVERLAY, 0, STATIC
        EXTERN osal_msg_send
        FUNCTION osal_msg_send,0202H
        ARGFRAME ISTACK, 0, STACK
        ARGFRAME PSTACK, 0, STACK
        ARGFRAME XSTACK, 11, STACK
        ARGFRAME IOVERLAY, 0, STATIC
        ARGFRAME DOVERLAY, 0, STATIC
        EXTERN ??HalUARTOpen?relay
        FUNCTION ??HalUARTOpen?relay,00H
        EXTERN ??HalUARTRead?relay
        FUNCTION ??HalUARTRead?relay,00H
        EXTERN ??Hal_UART_RxBufLen?relay
        FUNCTION ??Hal_UART_RxBufLen?relay,00H
        EXTERN ??osal_msg_allocate?relay
        FUNCTION ??osal_msg_allocate?relay,00H
        EXTERN ??osal_msg_send?relay
        FUNCTION ??osal_msg_send?relay,00H

// E:\Coding\IAR\RFTag\ZigBeeDev\5_ZStack-2.5.1a\Components\mt\MT_UART.c
//    1 /***************************************************************************************************
//    2   Filename:       MT_UART.c
//    3   Revised:        $Date: 2009-03-12 16:25:22 -0700 (Thu, 12 Mar 2009) $
//    4   Revision:       $Revision: 19404 $
//    5 
//    6   Description:  This module handles anything dealing with the serial port.
//    7 
//    8   Copyright 2007 Texas Instruments Incorporated. All rights reserved.
//    9 
//   10   IMPORTANT: Your use of this Software is limited to those specific rights
//   11   granted under the terms of a software license agreement between the user
//   12   who downloaded the software, his/her employer (which must be your employer)
//   13   and Texas Instruments Incorporated (the "License").  You may not use this
//   14   Software unless you agree to abide by the terms of the License. The License
//   15   limits your use, and you acknowledge, that the Software may not be modified,
//   16   copied or distributed unless embedded on a Texas Instruments microcontroller
//   17   or used solely and exclusively in conjunction with a Texas Instruments radio
//   18   frequency transceiver, which is integrated into your product.  Other than for
//   19   the foregoing purpose, you may not use, reproduce, copy, prepare derivative
//   20   works of, modify, distribute, perform, display or sell this Software and/or
//   21   its documentation for any purpose.
//   22 
//   23   YOU FURTHER ACKNOWLEDGE AND AGREE THAT THE SOFTWARE AND DOCUMENTATION ARE
//   24   PROVIDED AS IS?WITHOUT WARRANTY OF ANY KIND, EITHER EXPRESS OR IMPLIED,
//   25   INCLUDING WITHOUT LIMITATION, ANY WARRANTY OF MERCHANTABILITY, TITLE,
//   26   NON-INFRINGEMENT AND FITNESS FOR A PARTICULAR PURPOSE. IN NO EVENT SHALL
//   27   TEXAS INSTRUMENTS OR ITS LICENSORS BE LIABLE OR OBLIGATED UNDER CONTRACT,
//   28   NEGLIGENCE, STRICT LIABILITY, CONTRIBUTION, BREACH OF WARRANTY, OR OTHER
//   29   LEGAL EQUITABLE THEORY ANY DIRECT OR INDIRECT DAMAGES OR EXPENSES
//   30   INCLUDING BUT NOT LIMITED TO ANY INCIDENTAL, SPECIAL, INDIRECT, PUNITIVE
//   31   OR CONSEQUENTIAL DAMAGES, LOST PROFITS OR LOST DATA, COST OF PROCUREMENT
//   32   OF SUBSTITUTE GOODS, TECHNOLOGY, SERVICES, OR ANY CLAIMS BY THIRD PARTIES
//   33   (INCLUDING BUT NOT LIMITED TO ANY DEFENSE THEREOF), OR OTHER SIMILAR COSTS.
//   34 
//   35   Should you have any questions regarding your right to use this Software,
//   36   contact Texas Instruments Incorporated at www.TI.com.
//   37 
//   38 ***************************************************************************************************/
//   39 
//   40 /***************************************************************************************************
//   41  * INCLUDES
//   42  ***************************************************************************************************/
//   43 #include "ZComDef.h"
//   44 #include "OSAL.h"
//   45 #include "hal_uart.h"
//   46 #include "MT.h"
//   47 #include "MT_UART.h"
//   48 #include "OSAL_Memory.h"
//   49 #include "SampleRF.h"
//   50 
//   51 
//   52 /***************************************************************************************************
//   53  * MACROS
//   54  ***************************************************************************************************/
//   55 
//   56 /***************************************************************************************************
//   57  * CONSTANTS
//   58  ***************************************************************************************************/
//   59 /* State values for ZTool protocal */
//   60 #if 0
//   61 #define SOP_STATE      0x00
//   62 #define CMD_STATE1     0x01
//   63 #define CMD_STATE2     0x02
//   64 #define LEN_STATE      0x03
//   65 #define DATA_STATE     0x04
//   66 #define FCS_STATE      0x05
//   67 #endif
//   68 
//   69 #define SOP_STATE      0x00
//   70 #define LEN_STATE      0x01
//   71 #define GUID_STATE     0x02
//   72 #define ADDR_STATE     0x03
//   73 #define CMD_STATE      0x04
//   74 #define DATA_STATE     0x05
//   75 
//   76 
//   77 /***************************************************************************************************
//   78  *                                         GLOBAL VARIABLES
//   79  ***************************************************************************************************/
//   80 /* Used to indentify the application ID for osal task */

        RSEG XDATA_Z:XDATA:NOROOT(0)
        DATA8
//   81 byte App_TaskID;
App_TaskID:
        DS 1
        REQUIRE __INIT_XDATA_Z
//   82 
//   83 /* ZTool protocal parameters */

        RSEG XDATA_Z:XDATA:NOROOT(0)
        DATA8
//   84 uint8 state;
state:
        DS 1
        REQUIRE __INIT_XDATA_Z

        RSEG XDATA_Z:XDATA:NOROOT(0)
        DATA16
//   85 uint8  CMD_Token[2];
CMD_Token:
        DS 2
        REQUIRE __INIT_XDATA_Z

        RSEG XDATA_Z:XDATA:NOROOT(0)
        DATA8
//   86 uint8  LEN_Token;
LEN_Token:
        DS 1
        REQUIRE __INIT_XDATA_Z

        RSEG XDATA_Z:XDATA:NOROOT(0)
        DATA8
//   87 uint8  FSC_Token;
FSC_Token:
        DS 1
        REQUIRE __INIT_XDATA_Z

        RSEG XDATA_Z:XDATA:NOROOT(0)
        DATA16
//   88 mtOSALSerialData_t  *pMsg;
pMsg:
        DS 2
        REQUIRE __INIT_XDATA_Z

        RSEG XDATA_Z:XDATA:NOROOT(0)
        DATA8
//   89 uint8  tempDataLen;
tempDataLen:
        DS 1
        REQUIRE __INIT_XDATA_Z

        RSEG XDATA_Z:XDATA:NOROOT(0)
        DATA8
//   90 uint8  POSI_Token;
POSI_Token:
        DS 1
        REQUIRE __INIT_XDATA_Z
//   91 
//   92 #if defined (ZAPP_P1) || defined (ZAPP_P2)
//   93 uint16  MT_UartMaxZAppBufLen;
//   94 bool    MT_UartZAppRxStatus;
//   95 #endif
//   96 
//   97 
//   98 /***************************************************************************************************
//   99  *                                          LOCAL FUNCTIONS
//  100  ***************************************************************************************************/
//  101 
//  102 /***************************************************************************************************
//  103  * @fn      MT_UartInit
//  104  *
//  105  * @brief   Initialize MT with UART support
//  106  *
//  107  * @param   None
//  108  *
//  109  * @return  None
//  110 ***************************************************************************************************/

        RSEG BANKED_CODE:CODE:NOROOT(0)
//  111 void MT_UartInit ()
MT_UartInit:
        CFI Block cfiBlock0 Using cfiCommon0
        CFI Function MT_UartInit
        CODE
//  112 {
        FUNCALL MT_UartInit, HalUARTOpen
        LOCFRAME ISTACK, 2, STACK
        LOCFRAME PSTACK, 0, STACK
        LOCFRAME XSTACK, 29, STACK
        LOCFRAME IOVERLAY, 0, STATIC
        LOCFRAME DOVERLAY, 0, STATIC
        ARGFRAME ISTACK, 2, STACK
        ARGFRAME PSTACK, 0, STACK
        ARGFRAME XSTACK, 29, STACK
        ARGFRAME IOVERLAY, 0, STATIC
        ARGFRAME DOVERLAY, 0, STATIC
        PUSH    DPL
        CFI DPL0 Frame(CFA_SP, 4)
        CFI CFA_SP SP+-4
        PUSH    DPH
        CFI DPH0 Frame(CFA_SP, 5)
        CFI CFA_SP SP+-5
        ; Saved register size: 2
        ; Auto size: 29
        MOV     A,#-0x1d
        LCALL   ?ALLOC_XSTACK8
        CFI CFA_XSP16 add(XSP16, 29)
//  113   halUARTCfg_t uartConfig;
//  114 
//  115   /* Initialize APP ID */
//  116   App_TaskID = 0;
        MOV     DPTR,#App_TaskID
        CLR     A
        MOVX    @DPTR,A
//  117 
//  118   /* UART Configuration */
//  119   uartConfig.configured           = TRUE;
        MOV     DPL,?XSP + 0
        MOV     DPH,?XSP + 1
        INC     A
        MOVX    @DPTR,A
//  120   uartConfig.baudRate             = MT_UART_DEFAULT_BAUDRATE;
        LCALL   ?XSTACK_DISP0_8
        MOV     A,#0x4
        MOVX    @DPTR,A
//  121   uartConfig.flowControl          = MT_UART_DEFAULT_OVERFLOW;
        MOV     A,#0x2
        LCALL   ?XSTACK_DISP0_8
        CLR     A
        MOVX    @DPTR,A
//  122   uartConfig.flowControlThreshold = MT_UART_DEFAULT_THRESHOLD;
        MOV     A,#0x3
        LCALL   ?XSTACK_DISP0_8
        MOV     A,#0x40
        MOVX    @DPTR,A
        INC     DPTR
        CLR     A
        MOVX    @DPTR,A
//  123   uartConfig.rx.maxBufSize        = MT_UART_DEFAULT_MAX_RX_BUFF;
        MOV     A,#0xa
        LCALL   ?XSTACK_DISP0_8
        MOV     A,#-0x80
        MOVX    @DPTR,A
        INC     DPTR
        CLR     A
        MOVX    @DPTR,A
//  124   uartConfig.tx.maxBufSize        = MT_UART_DEFAULT_MAX_TX_BUFF;
        MOV     A,#0x12
        LCALL   ?XSTACK_DISP0_8
        MOV     A,#-0x80
        MOVX    @DPTR,A
        INC     DPTR
        CLR     A
        MOVX    @DPTR,A
//  125   uartConfig.idleTimeout          = MT_UART_DEFAULT_IDLE_TIMEOUT;
        MOV     A,#0x5
        LCALL   ?XSTACK_DISP0_8
        MOV     A,#0x6
        MOVX    @DPTR,A
//  126   uartConfig.intEnable            = TRUE;
        MOV     A,#0x16
        LCALL   ?XSTACK_DISP0_8
        MOV     A,#0x1
        MOVX    @DPTR,A
//  127 #if defined (ZTOOL_P1) || defined (ZTOOL_P2)
//  128   uartConfig.callBackFunc         = MT_UartProcessZToolData;
        MOV     A,#0x1b
        LCALL   ?XSTACK_DISP0_8
        MOV     A,#??MT_UartProcessZToolData?relay & 0xff
        MOVX    @DPTR,A
        INC     DPTR
        MOV     A,#(??MT_UartProcessZToolData?relay >> 8) & 0xff
        MOVX    @DPTR,A
//  129 #elif defined (ZAPP_P1) || defined (ZAPP_P2)
//  130   uartConfig.callBackFunc         = MT_UartProcessZAppData;
//  131 #else
//  132   uartConfig.callBackFunc         = NULL;
//  133 #endif
//  134 
//  135   /* Start UART */
//  136 #if defined (MT_UART_DEFAULT_PORT)
//  137   HalUARTOpen (MT_UART_DEFAULT_PORT, &uartConfig);
        ; Setup parameters for call to function HalUARTOpen
        MOV     DPL,?XSP + 0
        MOV     DPH,?XSP + 1
        MOV     R2,DPL
        MOV     R3,DPH
        MOV     R1,#0x0
        LCALL   ??HalUARTOpen?relay
//  138 #else
//  139   /* Silence IAR compiler warning */
//  140   (void)uartConfig;
//  141 #endif
//  142 
//  143   /* Initialize for ZApp */
//  144 #if defined (ZAPP_P1) || defined (ZAPP_P2)
//  145   /* Default max bytes that ZAPP can take */
//  146   MT_UartMaxZAppBufLen  = 1;
//  147   MT_UartZAppRxStatus   = MT_UART_ZAPP_RX_READY;
//  148 #endif
//  149 
//  150 }
        MOV     A,#0x1d
        LCALL   ?DEALLOC_XSTACK8
        CFI EndBlock cfiBlock0
        REQUIRE ?Subroutine0
        ; // Fall through to label ?Subroutine0

        RSEG BANKED_CODE:CODE:NOROOT(0)
?Subroutine0:
        CFI Block cfiBlock1 Using cfiCommon0
        CFI NoFunction
        CFI CFA_SP SP+-5
        CFI DPL0 Frame(CFA_SP, 4)
        CFI DPH0 Frame(CFA_SP, 5)
        POP     DPH
        CFI CFA_SP SP+-4
        CFI DPH0 SameValue
        POP     DPL
        CFI CFA_SP SP+-3
        CFI DPL0 SameValue
        LJMP    ?BRET
        CFI EndBlock cfiBlock1
//  151 
//  152 /***************************************************************************************************
//  153  * @fn      MT_SerialRegisterTaskID
//  154  *
//  155  * @brief   This function registers the taskID of the application so it knows
//  156  *          where to send the messages whent they come in.
//  157  *
//  158  * @param   void
//  159  *
//  160  * @return  void
//  161  ***************************************************************************************************/

        RSEG BANKED_CODE:CODE:NOROOT(0)
//  162 void MT_UartRegisterTaskID( byte taskID )
MT_UartRegisterTaskID:
        CFI Block cfiBlock2 Using cfiCommon0
        CFI Function MT_UartRegisterTaskID
        CODE
//  163 {
        PUSH    DPL
        CFI DPL0 Frame(CFA_SP, 4)
        CFI CFA_SP SP+-4
        PUSH    DPH
        CFI DPH0 Frame(CFA_SP, 5)
        CFI CFA_SP SP+-5
        ; Saved register size: 2
        ; Auto size: 0
//  164   App_TaskID = taskID;
        MOV     A,R1
        MOV     DPTR,#App_TaskID
        MOVX    @DPTR,A
//  165 }
        SJMP    ?Subroutine0
        CFI EndBlock cfiBlock2
//  166 
//  167 /***************************************************************************************************
//  168  * @fn      SPIMgr_CalcFCS
//  169  *
//  170  * @brief   Calculate the FCS of a message buffer by XOR'ing each byte.
//  171  *          Remember to NOT include SOP and FCS fields, so start at the CMD field.
//  172  *
//  173  * @param   byte *msg_ptr - message pointer
//  174  * @param   byte len - length (in bytes) of message
//  175  *
//  176  * @return  result byte
//  177  ***************************************************************************************************/

        RSEG BANKED_CODE:CODE:NOROOT(0)
//  178 byte MT_UartCalcFCS( uint8 *msg_ptr, uint8 len )
MT_UartCalcFCS:
        CFI Block cfiBlock3 Using cfiCommon0
        CFI Function MT_UartCalcFCS
        CODE
//  179 {
        PUSH    DPL
        CFI DPL0 Frame(CFA_SP, 4)
        CFI CFA_SP SP+-4
        PUSH    DPH
        CFI DPH0 Frame(CFA_SP, 5)
        CFI CFA_SP SP+-5
        ; Saved register size: 2
        ; Auto size: 0
        MOV     A,R1
        MOV     R4,A
//  180   byte x;
//  181   byte xorResult;
//  182 
//  183   xorResult = 0;
        MOV     R1,#0x0
//  184 
//  185   for ( x = 0; x < len; x++, msg_ptr++ )
        MOV     R0,#0x0
        SJMP    ??MT_UartCalcFCS_0
//  186     xorResult = xorResult ^ *msg_ptr;
??MT_UartCalcFCS_1:
        MOV     DPL,R2
        MOV     DPH,R3
        MOVX    A,@DPTR
        XCH     A,R1
        XRL     A,R1
        MOV     R1,A
        INC     R0
        INC     DPTR
        MOV     R2,DPL
        MOV     R3,DPH
??MT_UartCalcFCS_0:
        MOV     A,R0
        CLR     C
        SUBB    A,R4
        JC      ??MT_UartCalcFCS_1
//  187 
//  188   return ( xorResult );
        SJMP    ?Subroutine0
        CFI EndBlock cfiBlock3
//  189 }
//  190 
//  191 
//  192 /***************************************************************************************************
//  193  * @fn      MT_UartProcessZToolData
//  194  *
//  195  * @brief   | SOP | Data Length  |   CMD   |   Data   |  FCS  |
//  196  *          |  1  |     1        |    2    |  0-Len   |   1   |
//  197  *
//  198  *          Parses the data and determine either is SPI or just simply serial data
//  199  *          then send the data to correct place (MT or APP)
//  200  *
//  201  * @param   port     - UART port
//  202  *          event    - Event that causes the callback
//  203  *
//  204  *
//  205  * @return  None
//  206  ***************************************************************************************************/

        RSEG BANKED_CODE:CODE:NOROOT(0)
//  207 void MT_UartProcessZToolData ( uint8 port, uint8 event )
MT_UartProcessZToolData:
        CFI Block cfiBlock4 Using cfiCommon0
        CFI Function MT_UartProcessZToolData
        CODE
//  208 {
        FUNCALL MT_UartProcessZToolData, Hal_UART_RxBufLen
        LOCFRAME ISTACK, 0, STACK
        LOCFRAME PSTACK, 0, STACK
        LOCFRAME XSTACK, 11, STACK
        LOCFRAME IOVERLAY, 0, STATIC
        LOCFRAME DOVERLAY, 0, STATIC
        ARGFRAME ISTACK, 0, STACK
        ARGFRAME PSTACK, 0, STACK
        ARGFRAME XSTACK, 11, STACK
        ARGFRAME IOVERLAY, 0, STATIC
        ARGFRAME DOVERLAY, 0, STATIC
        FUNCALL MT_UartProcessZToolData, HalUARTRead
        LOCFRAME ISTACK, 0, STACK
        LOCFRAME PSTACK, 0, STACK
        LOCFRAME XSTACK, 11, STACK
        LOCFRAME IOVERLAY, 0, STATIC
        LOCFRAME DOVERLAY, 0, STATIC
        ARGFRAME ISTACK, 0, STACK
        ARGFRAME PSTACK, 0, STACK
        ARGFRAME XSTACK, 11, STACK
        ARGFRAME IOVERLAY, 0, STATIC
        ARGFRAME DOVERLAY, 0, STATIC
        FUNCALL MT_UartProcessZToolData, osal_msg_allocate
        LOCFRAME ISTACK, 0, STACK
        LOCFRAME PSTACK, 0, STACK
        LOCFRAME XSTACK, 11, STACK
        LOCFRAME IOVERLAY, 0, STATIC
        LOCFRAME DOVERLAY, 0, STATIC
        ARGFRAME ISTACK, 0, STACK
        ARGFRAME PSTACK, 0, STACK
        ARGFRAME XSTACK, 11, STACK
        ARGFRAME IOVERLAY, 0, STATIC
        ARGFRAME DOVERLAY, 0, STATIC
        FUNCALL MT_UartProcessZToolData, osal_msg_send
        LOCFRAME ISTACK, 0, STACK
        LOCFRAME PSTACK, 0, STACK
        LOCFRAME XSTACK, 11, STACK
        LOCFRAME IOVERLAY, 0, STATIC
        LOCFRAME DOVERLAY, 0, STATIC
        ARGFRAME ISTACK, 0, STACK
        ARGFRAME PSTACK, 0, STACK
        ARGFRAME XSTACK, 11, STACK
        ARGFRAME IOVERLAY, 0, STATIC
        ARGFRAME DOVERLAY, 0, STATIC
        FUNCALL MT_UartProcessZToolData, Hal_UART_RxBufLen
        LOCFRAME ISTACK, 0, STACK
        LOCFRAME PSTACK, 0, STACK
        LOCFRAME XSTACK, 11, STACK
        LOCFRAME IOVERLAY, 0, STATIC
        LOCFRAME DOVERLAY, 0, STATIC
        ARGFRAME ISTACK, 0, STACK
        ARGFRAME PSTACK, 0, STACK
        ARGFRAME XSTACK, 11, STACK
        ARGFRAME IOVERLAY, 0, STATIC
        ARGFRAME DOVERLAY, 0, STATIC
        FUNCALL MT_UartProcessZToolData, HalUARTRead
        LOCFRAME ISTACK, 0, STACK
        LOCFRAME PSTACK, 0, STACK
        LOCFRAME XSTACK, 11, STACK
        LOCFRAME IOVERLAY, 0, STATIC
        LOCFRAME DOVERLAY, 0, STATIC
        ARGFRAME ISTACK, 0, STACK
        ARGFRAME PSTACK, 0, STACK
        ARGFRAME XSTACK, 11, STACK
        ARGFRAME IOVERLAY, 0, STATIC
        ARGFRAME DOVERLAY, 0, STATIC
        FUNCALL MT_UartProcessZToolData, HalUARTRead
        LOCFRAME ISTACK, 0, STACK
        LOCFRAME PSTACK, 0, STACK
        LOCFRAME XSTACK, 11, STACK
        LOCFRAME IOVERLAY, 0, STATIC
        LOCFRAME DOVERLAY, 0, STATIC
        ARGFRAME ISTACK, 0, STACK
        ARGFRAME PSTACK, 0, STACK
        ARGFRAME XSTACK, 11, STACK
        ARGFRAME IOVERLAY, 0, STATIC
        ARGFRAME DOVERLAY, 0, STATIC
        FUNCALL MT_UartProcessZToolData, osal_msg_send
        LOCFRAME ISTACK, 0, STACK
        LOCFRAME PSTACK, 0, STACK
        LOCFRAME XSTACK, 11, STACK
        LOCFRAME IOVERLAY, 0, STATIC
        LOCFRAME DOVERLAY, 0, STATIC
        ARGFRAME ISTACK, 0, STACK
        ARGFRAME PSTACK, 0, STACK
        ARGFRAME XSTACK, 11, STACK
        ARGFRAME IOVERLAY, 0, STATIC
        ARGFRAME DOVERLAY, 0, STATIC
        MOV     A,#-0xa
        LCALL   ?BANKED_ENTER_XDATA
        CFI DPH0 load(1, XDATA, add(CFA_XSP16, literal(-1)))
        CFI DPL0 load(1, XDATA, add(CFA_XSP16, literal(-2)))
        CFI ?BRET_EXT load(1, XDATA, add(CFA_XSP16, literal(-3)))
        CFI ?RET_HIGH load(1, XDATA, add(CFA_XSP16, literal(-4)))
        CFI ?RET_LOW load(1, XDATA, add(CFA_XSP16, literal(-5)))
        CFI R7 load(1, XDATA, add(CFA_XSP16, literal(-6)))
        CFI V1 load(1, XDATA, add(CFA_XSP16, literal(-7)))
        CFI V0 load(1, XDATA, add(CFA_XSP16, literal(-8)))
        CFI VB load(1, XDATA, add(CFA_XSP16, literal(-9)))
        CFI R6 load(1, XDATA, add(CFA_XSP16, literal(-10)))
        CFI CFA_SP SP+0
        CFI CFA_XSP16 add(XSP16, 10)
        ; Saved register size: 10
        ; Auto size: 1
        MOV     A,#-0x1
        LCALL   ?ALLOC_XSTACK8
        CFI CFA_XSP16 add(XSP16, 11)
        MOV     A,R1
        MOV     R6,A
//  209   uint8  ch;
//  210   uint8  bytesInRxBuffer;
//  211 #ifdef ZS_DEBUG_UART
//  212   //uint8 ch1;
//  213   uint8 ch2;
//  214 #endif
//  215   
//  216   (void)event;  // Intentionally unreferenced parameter
        SJMP    ??MT_UartProcessZToolData_0
//  217 
//  218   while (Hal_UART_RxBufLen(port))
//  219   {
//  220     HalUARTRead (port, &ch, 1);
//  221     
//  222 #ifdef ZS_DEBUG_UART
//  223     HalUARTWrite(0x00,"+",1);
//  224     HalUARTWrite(0x00,&ch ,1);
//  225     HalUARTWrite(0x00," " ,1);
//  226     ch2 = ch / 16;
//  227     ch2 = ch2 < 10 ? ch2+'0':ch2+'A'-10;
//  228     HalUARTWrite(0x00,&ch2 ,1);
//  229     ch2 = ch % 16;
//  230     ch2 = ch2 < 10 ? ch2+'0':ch2+'A'-10;
//  231     HalUARTWrite(0x00,&ch2 ,1);
//  232     HalUARTWrite(0x00,"\n",1);
//  233 #endif
//  234 
//  235 //======以下逻辑已经通过宏注释掉了======
//  236     switch(state)
//  237     {
//  238         case SOP_STATE:
//  239             if( ch == SRF_UART_SOF )
//  240             {
//  241                 state = LEN_STATE;
//  242 #ifdef ZS_DEBUG_UART
//  243                 HalUARTWrite(0x00,"LEN_STATE\n",10);
//  244 #endif
//  245             }
//  246             break;
//  247         case LEN_STATE:
//  248             LEN_Token = ch;
//  249             tempDataLen = 0;
//  250             /* Allocate memory for the data */
//  251             pMsg = (mtOSALSerialData_t *)osal_msg_allocate( sizeof ( mtOSALSerialData_t ) +
//  252                                                         SRF_FRAME_HDR_SZ + LEN_Token );
//  253             if (pMsg)
//  254             {
//  255               /* Fill up what we can */
//  256               pMsg->hdr.event = CMD_SERIAL_MSG;
??MT_UartProcessZToolData_1:
        MOVX    A,@DPTR
        MOV     DPH,A
        MOV     DPL,R0
        MOV     A,#0x1
        MOVX    @DPTR,A
//  257               pMsg->msg = (uint8*)(pMsg+1);
        MOV     DPTR,#pMsg
        MOVX    A,@DPTR
        ADD     A,#0x4
        MOV     R0,A
        INC     DPTR
        MOVX    A,@DPTR
        ADDC    A,#0x0
        MOV     R1,A
        LCALL   ?Subroutine9 & 0xFFFF
??CrossCallReturnLabel_18:
        MOV     A,R0
        MOVX    @DPTR,A
        INC     DPTR
        MOV     A,R1
        MOVX    @DPTR,A
//  258               pMsg->msg[SRF_POS_LEN] = LEN_Token;
        MOV     DPTR,#LEN_Token
        MOVX    A,@DPTR
        PUSH    A
        CFI CFA_SP SP+-1
        MOV     DPTR,#pMsg
        LCALL   ?Subroutine6 & 0xFFFF
??CrossCallReturnLabel_11:
        INC     DPTR
        INC     DPTR
        LCALL   ?Subroutine6 & 0xFFFF
??CrossCallReturnLabel_12:
        POP     A
        CFI CFA_SP SP+0
        MOVX    @DPTR,A
//  259               state = GUID_STATE;
        MOV     DPTR,#state
        MOV     A,#0x2
??MT_UartProcessZToolData_2:
        MOVX    @DPTR,A
//  260               POSI_Token = 0;
        MOV     DPTR,#POSI_Token
??MT_UartProcessZToolData_3:
        CLR     A
??MT_UartProcessZToolData_4:
        MOVX    @DPTR,A
//  261 #ifdef ZS_DEBUG_UART
//  262               HalUARTWrite(0,"GUID_STATE\n" ,11);  /* 调试使用 */
//  263 #endif
//  264             }
//  265             else
//  266             {
//  267                 state = SOP_STATE;
//  268 #ifdef ZS_DEBUG_UART
//  269                 HalUARTWrite(0,"SOP_STATE\n" ,10);  /* 调试使用 */
//  270 #endif
//  271                 return;
//  272             }
//  273             break;
??MT_UartProcessZToolData_0:
        ; Setup parameters for call to function Hal_UART_RxBufLen
        MOV     A,R6
        MOV     R1,A
        LCALL   ??Hal_UART_RxBufLen?relay
        MOV     ?V0 + 1,R3
        MOV     A,R2
        ORL     A,?V0 + 1
        JZ      ??MT_UartProcessZToolData_5
        ; Setup parameters for call to function HalUARTRead
        MOV     R4,#0x1
        MOV     R5,#0x0
        MOV     DPL,?XSP + 0
        MOV     DPH,?XSP + 1
        MOV     R2,DPL
        MOV     R3,DPH
        MOV     A,R6
        MOV     R1,A
        LCALL   ??HalUARTRead?relay
        MOV     DPTR,#state
        MOVX    A,@DPTR
        JZ      ??MT_UartProcessZToolData_6
        DEC     A
        JZ      ??MT_UartProcessZToolData_7
        DEC     A
        JZ      ??MT_UartProcessZToolData_8
        DEC     A
        JNZ     $+5
        LJMP    ??MT_UartProcessZToolData_9 & 0xFFFF
        DEC     A
        JNZ     $+5
        LJMP    ??MT_UartProcessZToolData_10 & 0xFFFF
        DEC     A
        JNZ     $+5
        LJMP    ??MT_UartProcessZToolData_11 & 0xFFFF
        SJMP    ??MT_UartProcessZToolData_0
??MT_UartProcessZToolData_6:
        MOV     DPL,?XSP + 0
        MOV     DPH,?XSP + 1
        MOVX    A,@DPTR
        XRL     A,#0x23
        JNZ     ??MT_UartProcessZToolData_0
        MOV     DPTR,#state
        MOV     A,#0x1
        SJMP    ??MT_UartProcessZToolData_4
??MT_UartProcessZToolData_7:
        MOV     DPL,?XSP + 0
        MOV     DPH,?XSP + 1
        MOVX    A,@DPTR
        MOV     DPTR,#LEN_Token
        MOVX    @DPTR,A
        MOV     DPTR,#tempDataLen
        CLR     A
        MOVX    @DPTR,A
        ; Setup parameters for call to function osal_msg_allocate
        MOV     DPTR,#LEN_Token
        MOVX    A,@DPTR
        ADD     A,#0x11
        MOV     R2,A
        CLR     A
        ADDC    A,#0x0
        MOV     R3,A
        LCALL   ??osal_msg_allocate?relay
        MOV     DPTR,#pMsg
        MOV     A,R2
        MOVX    @DPTR,A
        INC     DPTR
        MOV     A,R3
        MOVX    @DPTR,A
        MOV     DPTR,#pMsg
        MOVX    A,@DPTR
        MOV     R0,A
        INC     DPTR
        MOVX    A,@DPTR
        MOV     R1,A
        MOV     A,R0
        ORL     A,R1
        JZ      $+5
        LJMP    ??MT_UartProcessZToolData_1 & 0xFFFF
        MOV     DPTR,#state
        CLR     A
        MOVX    @DPTR,A
??MT_UartProcessZToolData_5:
        MOV     A,#0x1
        LCALL   ?DEALLOC_XSTACK8
        CFI CFA_XSP16 add(XSP16, 10)
        MOV     R7,#0x2
        LJMP    ?BANKED_LEAVE_XDATA
        CFI CFA_XSP16 add(XSP16, 11)
//  274         case GUID_STATE:
//  275             pMsg->msg[SRF_POS_ID0 + POSI_Token++] = ch;
??MT_UartProcessZToolData_8:
        MOV     DPL,?XSP + 0
        MOV     DPH,?XSP + 1
        MOVX    A,@DPTR
        PUSH    A
        CFI CFA_SP SP+-1
        MOV     DPTR,#POSI_Token
        LCALL   ?Subroutine4 & 0xFFFF
??CrossCallReturnLabel_7:
        LCALL   ?Subroutine8 & 0xFFFF
??CrossCallReturnLabel_13:
        POP     A
        CFI CFA_SP SP+0
        LCALL   ?Subroutine1 & 0xFFFF
//  276             if( POSI_Token >= 4 )
??CrossCallReturnLabel_0:
        JNC     $+5
        LJMP    ??MT_UartProcessZToolData_0 & 0xFFFF
//  277             {
//  278                 state = ADDR_STATE;
        MOV     DPTR,#state
        MOV     A,#0x3
        LJMP    ??MT_UartProcessZToolData_2 & 0xFFFF
//  279                 POSI_Token = 0;
//  280 #ifdef ZS_DEBUG_UART
//  281                 HalUARTWrite(0,"ADDR_STATE\n" ,11);  /* 调试使用 */
//  282 #endif
//  283             }
//  284             break;
//  285         case ADDR_STATE:
//  286             pMsg->msg[SRF_POS_SA0 + POSI_Token++] = ch;
??MT_UartProcessZToolData_9:
        MOV     DPL,?XSP + 0
        MOV     DPH,?XSP + 1
        MOVX    A,@DPTR
        PUSH    A
        CFI CFA_SP SP+-1
        LCALL   ?Subroutine3 & 0xFFFF
??CrossCallReturnLabel_5:
        POP     A
        CFI CFA_SP SP+0
        LCALL   ?Subroutine1 & 0xFFFF
//  287             if( POSI_Token >= 4 )
??CrossCallReturnLabel_1:
        JNC     $+5
        LJMP    ??MT_UartProcessZToolData_0 & 0xFFFF
//  288             {
//  289                 state = CMD_STATE;
        MOV     DPTR,#state
        MOV     A,#0x4
        LJMP    ??MT_UartProcessZToolData_2 & 0xFFFF
//  290                 POSI_Token = 0;
//  291 #ifdef ZS_DEBUG_UART
//  292                 HalUARTWrite(0,"CMD_STATE\n" ,10);  /* 调试使用 */
//  293 #endif
//  294             }
//  295             break;
//  296         case CMD_STATE:
//  297             pMsg->msg[SRF_POS_CMD0 + POSI_Token++] = ch;
??MT_UartProcessZToolData_10:
        MOV     DPL,?XSP + 0
        MOV     DPH,?XSP + 1
        MOVX    A,@DPTR
        PUSH    A
        CFI CFA_SP SP+-1
        LCALL   ?Subroutine3 & 0xFFFF
??CrossCallReturnLabel_6:
        INC     DPTR
        INC     DPTR
        INC     DPTR
        INC     DPTR
        POP     A
        CFI CFA_SP SP+0
        LCALL   ?Subroutine1 & 0xFFFF
//  298             if( POSI_Token >= 4 )
??CrossCallReturnLabel_2:
        JNC     $+5
        LJMP    ??MT_UartProcessZToolData_0 & 0xFFFF
//  299             {
//  300                 if( LEN_Token )
        MOV     DPTR,#LEN_Token
        MOVX    A,@DPTR
        JZ      ??MT_UartProcessZToolData_12
//  301                 {
//  302                     state = DATA_STATE;
        MOV     DPTR,#state
        MOV     A,#0x5
        SJMP    ??MT_UartProcessZToolData_13
//  303 #ifdef ZS_DEBUG_UART
//  304                     HalUARTWrite(0,"DATA_STATE\n" ,11);  /* 调试使用 */
//  305 #endif
//  306                 }
//  307                 else
//  308                 {
//  309                     //send_msg
//  310                     osal_msg_send( App_TaskID, (uint8 *)pMsg );
??MT_UartProcessZToolData_12:
        ; Setup parameters for call to function osal_msg_send
        LCALL   ?Subroutine5 & 0xFFFF
//  311                     state = SOP_STATE;
//  312 #ifdef ZS_DEBUG_UART
//  313                     HalUARTWrite(0,"SOP_STATE\n" ,10);  /* 调试使用 */
//  314 #endif
//  315                 }
//  316                 POSI_Token = 0;
//  317             }
??CrossCallReturnLabel_9:
        CLR     A
??MT_UartProcessZToolData_13:
        LJMP    ??MT_UartProcessZToolData_2 & 0xFFFF
//  318             
//  319             break;
//  320         case DATA_STATE:
//  321             /* Fill in the buffer the first byte of the data */
//  322             pMsg->msg[SRF_FRAME_HDR_SZ + tempDataLen++] = ch;
??MT_UartProcessZToolData_11:
        MOV     DPL,?XSP + 0
        MOV     DPH,?XSP + 1
        MOVX    A,@DPTR
        PUSH    A
        CFI CFA_SP SP+-1
        MOV     DPTR,#tempDataLen
        LCALL   ?Subroutine4 & 0xFFFF
??CrossCallReturnLabel_8:
        MOV     R0,A
        INC     DPTR
        MOVX    A,@DPTR
        ADDC    A,#0x0
        MOV     R1,A
        MOV     A,R0
        ADD     A,#0xd
        MOV     DPL,A
        MOV     A,R1
        ADDC    A,#0x0
        MOV     DPH,A
        POP     A
        CFI CFA_SP SP+0
        MOVX    @DPTR,A
        MOV     DPTR,#tempDataLen
        MOVX    A,@DPTR
        INC     A
        MOVX    @DPTR,A
//  323 
//  324             /* Check number of bytes left in the Rx buffer */
//  325             bytesInRxBuffer = Hal_UART_RxBufLen(port);
        ; Setup parameters for call to function Hal_UART_RxBufLen
        MOV     A,R6
        MOV     R1,A
        LCALL   ??Hal_UART_RxBufLen?relay
        MOV     A,R2
        MOV     R7,A
//  326 
//  327             /* If the remain of the data is there, read them all, otherwise, just read enough */
//  328             if (bytesInRxBuffer <= LEN_Token - tempDataLen)
        MOV     DPTR,#LEN_Token
        MOVX    A,@DPTR
        MOV     R0,A
        MOV     DPTR,#tempDataLen
        MOVX    A,@DPTR
        MOV     R2,A
        MOV     A,R0
        CLR     C
        SUBB    A,R2
        MOV     R0,A
        SUBB    A,0xE0 /* A   */
        MOV     R1,A
        MOV     ?V0 + 0,R7
        CLR     C
        MOV     A,R0
        SUBB    A,?V0 + 0
        MOV     A,R1
        SUBB    A,#0x0
        MOV     C,0xD0 /* PSW */.2
        XRL     A,PSW
        RLC     A
        JC      ??MT_UartProcessZToolData_14
//  329             {
//  330                 HalUARTRead (port, &pMsg->msg[SRF_FRAME_HDR_SZ + tempDataLen], bytesInRxBuffer);
        ; Setup parameters for call to function HalUARTRead
        MOV     R4,?V0 + 0
        MOV     R5,#0x0
        MOVX    A,@DPTR
        MOV     R0,A
        LCALL   ?Subroutine2 & 0xFFFF
//  331                 tempDataLen += bytesInRxBuffer;
??CrossCallReturnLabel_3:
        MOV     DPTR,#tempDataLen
        MOVX    A,@DPTR
        ADD     A,R7
        SJMP    ??MT_UartProcessZToolData_15
//  332             }
//  333             else
//  334             {
//  335                 HalUARTRead (port, &pMsg->msg[SRF_FRAME_HDR_SZ + tempDataLen], LEN_Token - tempDataLen);
??MT_UartProcessZToolData_14:
        MOVX    A,@DPTR
        MOV     R0,A
        ; Setup parameters for call to function HalUARTRead
        MOV     DPTR,#LEN_Token
        MOVX    A,@DPTR
        CLR     C
        SUBB    A,R0
        MOV     R4,A
        SUBB    A,0xE0 /* A   */
        MOV     R5,A
        LCALL   ?Subroutine2 & 0xFFFF
//  336                 tempDataLen += (LEN_Token - tempDataLen);
??CrossCallReturnLabel_4:
        MOV     DPTR,#LEN_Token
        MOVX    A,@DPTR
        MOV     DPTR,#tempDataLen
??MT_UartProcessZToolData_15:
        MOVX    @DPTR,A
//  337             }
//  338             /* If number of bytes read is equal to data length, time to move on to FCS */
//  339             if ( tempDataLen == LEN_Token )
        MOVX    A,@DPTR
        MOV     R0,A
        MOV     DPTR,#LEN_Token
        MOVX    A,@DPTR
        XRL     A,R0
        JZ      $+5
        LJMP    ??MT_UartProcessZToolData_0 & 0xFFFF
//  340             {
//  341                 //send_msg
//  342                 osal_msg_send( App_TaskID, (uint8 *)pMsg );
        ; Setup parameters for call to function osal_msg_send
        LCALL   ?Subroutine5 & 0xFFFF
//  343                 state = SOP_STATE;
//  344 #ifdef ZS_DEBUG_UART
//  345                 HalUARTWrite(0,"SOP_STATE\n" ,10);  /* 调试使用 */
//  346 #endif
//  347             }
//  348             break;
//  349         default:
//  350           break;
//  351     }
//  352     
//  353     
//  354 //======================================
//  355 #if 0
//  356     switch (state)
//  357     {
//  358       case SOP_STATE:
//  359         if (ch == MT_UART_SOF)
//  360         {
//  361           state = LEN_STATE;
//  362         }
//  363         break;
//  364 
//  365       case LEN_STATE:
//  366         LEN_Token = ch;
//  367 
//  368         tempDataLen = 0;
//  369 
//  370         /* Allocate memory for the data */
//  371         pMsg = (mtOSALSerialData_t *)osal_msg_allocate( sizeof ( mtOSALSerialData_t ) +
//  372                                                         MT_RPC_FRAME_HDR_SZ + LEN_Token );
//  373 
//  374         if (pMsg)
//  375         {
//  376           /* Fill up what we can */
//  377           pMsg->hdr.event = CMD_SERIAL_MSG;
//  378           pMsg->msg = (uint8*)(pMsg+1);
//  379           pMsg->msg[MT_RPC_POS_LEN] = LEN_Token;
//  380           state = CMD_STATE1;
//  381         }
//  382         else
//  383         {
//  384           state = SOP_STATE;
//  385           return;
//  386         }
//  387         break;
//  388 
//  389       case CMD_STATE1:
//  390         pMsg->msg[MT_RPC_POS_CMD0] = ch;
//  391         state = CMD_STATE2;
//  392 #ifdef ZS_DEBUG_UART
//  393         HalUARTWrite(0,"CMD_STATE2\n" ,11);  /* 调试使用 */
//  394 #endif
//  395         break;
//  396 
//  397       case CMD_STATE2:
//  398         pMsg->msg[MT_RPC_POS_CMD1] = ch;
//  399         /* If there is no data, skip to FCS state */
//  400         if (LEN_Token)
//  401         {
//  402           state = DATA_STATE;
//  403 #ifdef ZS_DEBUG_UART
//  404         HalUARTWrite(0,"DATA_STATE\n" ,11);  /* 调试使用 */
//  405 #endif
//  406         }
//  407         else
//  408         {
//  409           state = FCS_STATE;
//  410 #ifdef ZS_DEBUG_UART
//  411           HalUARTWrite(0,"FCS_STATE\n" ,10);  /* 调试使用 */
//  412 #endif
//  413         }
//  414         break;
//  415 
//  416       case DATA_STATE:
//  417 
//  418         /* Fill in the buffer the first byte of the data */
//  419         pMsg->msg[MT_RPC_FRAME_HDR_SZ + tempDataLen++] = ch;
//  420 
//  421         /* Check number of bytes left in the Rx buffer */
//  422         bytesInRxBuffer = Hal_UART_RxBufLen(port);
//  423 
//  424         /* If the remain of the data is there, read them all, otherwise, just read enough */
//  425         if (bytesInRxBuffer <= LEN_Token - tempDataLen)
//  426         {
//  427           HalUARTRead (port, &pMsg->msg[MT_RPC_FRAME_HDR_SZ + tempDataLen], bytesInRxBuffer);
//  428           tempDataLen += bytesInRxBuffer;
//  429         }
//  430         else
//  431         {
//  432           HalUARTRead (port, &pMsg->msg[MT_RPC_FRAME_HDR_SZ + tempDataLen], LEN_Token - tempDataLen);
//  433           tempDataLen += (LEN_Token - tempDataLen);
//  434         }
//  435 
//  436         /* If number of bytes read is equal to data length, time to move on to FCS */
//  437 #ifdef ZS_DEBUG_UART
//  438         ch1 = bytesInRxBuffer + '0';
//  439         HalUARTWrite(0,&ch1 ,1);  /* 调试使用 */
//  440         ch1 = tempDataLen + '0';
//  441         HalUARTWrite(0,&ch1 ,1);  /* 调试使用 */
//  442         ch1 = LEN_Token + '0';
//  443         HalUARTWrite(0,&ch1 ,1);  /* 调试使用 */
//  444         ch1 = App_TaskID + '0';
//  445         HalUARTWrite(0,&ch1 ,1);  /* 调试使用 */
//  446         HalUARTWrite(0,"\n" ,1);  /* 调试使用 */
//  447         
//  448         HalUARTWrite(0x00,"[" ,1);  /* 调试使用 */
//  449         HalUARTWrite(0x00,&pMsg->msg[MT_RPC_POS_DAT0] ,pMsg->msg[MT_RPC_POS_LEN]);  /* 调试使用 */
//  450         HalUARTWrite(0x00,"]\n" ,2);  /* 调试使用 */
//  451 #endif
//  452         
//  453         //if ( tempDataLen == LEN_Token-'0' )
//  454             //state = FCS_STATE;
//  455         osal_msg_send( App_TaskID, (uint8 *)pMsg );
//  456         
//  457         state = SOP_STATE;
//  458 #ifdef ZS_DEBUG_UART
//  459         HalUARTWrite(0,"SOP_STATE\n" ,10);  /* 调试使用 */
//  460 #endif
//  461         break;
//  462 
//  463       case FCS_STATE:
//  464 
//  465         FSC_Token = ch;
//  466 
//  467         /* Make sure it's correct */
//  468         if ((MT_UartCalcFCS ((uint8*)&pMsg->msg[0], MT_RPC_FRAME_HDR_SZ + LEN_Token) == FSC_Token))
//  469         {
//  470           osal_msg_send( App_TaskID, (byte *)pMsg );
//  471         }
//  472         else
//  473         {
//  474           /* deallocate the msg */
//  475           osal_msg_deallocate ( (uint8 *)pMsg );
//  476         }
//  477 
//  478         /* Reset the state, send or discard the buffers at this point */
//  479         state = SOP_STATE;
//  480 
//  481         break;
//  482 
//  483       default:
//  484        break;
//  485     }
//  486 #endif
//  487   }
??CrossCallReturnLabel_10:
        LJMP    ??MT_UartProcessZToolData_3 & 0xFFFF
        CFI EndBlock cfiBlock4
//  488 }

        RSEG BANKED_CODE:CODE:NOROOT(0)
?Subroutine6:
        CFI Block cfiCond5 Using cfiCommon0
        CFI NoFunction
        CFI Conditional ??CrossCallReturnLabel_11
        CFI R6 load(1, XDATA, add(CFA_XSP16, literal(-10)))
        CFI VB load(1, XDATA, add(CFA_XSP16, literal(-9)))
        CFI V0 load(1, XDATA, add(CFA_XSP16, literal(-8)))
        CFI V1 load(1, XDATA, add(CFA_XSP16, literal(-7)))
        CFI R7 load(1, XDATA, add(CFA_XSP16, literal(-6)))
        CFI ?RET_LOW load(1, XDATA, add(CFA_XSP16, literal(-5)))
        CFI ?RET_HIGH load(1, XDATA, add(CFA_XSP16, literal(-4)))
        CFI ?BRET_EXT load(1, XDATA, add(CFA_XSP16, literal(-3)))
        CFI DPL0 load(1, XDATA, add(CFA_XSP16, literal(-2)))
        CFI DPH0 load(1, XDATA, add(CFA_XSP16, literal(-1)))
        CFI CFA_SP SP+-1
        CFI CFA_XSP16 add(XSP16, 11)
        CFI Block cfiCond6 Using cfiCommon0
        CFI (cfiCond6) NoFunction
        CFI (cfiCond6) Conditional ??CrossCallReturnLabel_12
        CFI (cfiCond6) R6 load(1, XDATA, add(CFA_XSP16, literal(-10)))
        CFI (cfiCond6) VB load(1, XDATA, add(CFA_XSP16, literal(-9)))
        CFI (cfiCond6) V0 load(1, XDATA, add(CFA_XSP16, literal(-8)))
        CFI (cfiCond6) V1 load(1, XDATA, add(CFA_XSP16, literal(-7)))
        CFI (cfiCond6) R7 load(1, XDATA, add(CFA_XSP16, literal(-6)))
        CFI (cfiCond6) ?RET_LOW load(1, XDATA, add(CFA_XSP16, literal(-5)))
        CFI (cfiCond6) ?RET_HIGH load(1, XDATA, add(CFA_XSP16, literal(-4)))
        CFI (cfiCond6) ?BRET_EXT load(1, XDATA, add(CFA_XSP16, literal(-3)))
        CFI (cfiCond6) DPL0 load(1, XDATA, add(CFA_XSP16, literal(-2)))
        CFI (cfiCond6) DPH0 load(1, XDATA, add(CFA_XSP16, literal(-1)))
        CFI (cfiCond6) CFA_SP SP+-1
        CFI (cfiCond6) CFA_XSP16 add(XSP16, 11)
        CFI Block cfiPicker7 Using cfiCommon1
        CFI (cfiPicker7) NoFunction
        CFI (cfiPicker7) Picker
        MOVX    A,@DPTR
        MOV     R0,A
        INC     DPTR
        MOVX    A,@DPTR
        MOV     DPH,A
        MOV     DPL,R0
        RET
        CFI EndBlock cfiCond5
        CFI EndBlock cfiCond6
        CFI EndBlock cfiPicker7

        RSEG BANKED_CODE:CODE:NOROOT(0)
?Subroutine5:
        CFI Block cfiCond8 Using cfiCommon0
        CFI NoFunction
        CFI Conditional ??CrossCallReturnLabel_9
        CFI R6 load(1, XDATA, add(CFA_XSP16, literal(-10)))
        CFI VB load(1, XDATA, add(CFA_XSP16, literal(-9)))
        CFI V0 load(1, XDATA, add(CFA_XSP16, literal(-8)))
        CFI V1 load(1, XDATA, add(CFA_XSP16, literal(-7)))
        CFI R7 load(1, XDATA, add(CFA_XSP16, literal(-6)))
        CFI ?RET_LOW load(1, XDATA, add(CFA_XSP16, literal(-5)))
        CFI ?RET_HIGH load(1, XDATA, add(CFA_XSP16, literal(-4)))
        CFI ?BRET_EXT load(1, XDATA, add(CFA_XSP16, literal(-3)))
        CFI DPL0 load(1, XDATA, add(CFA_XSP16, literal(-2)))
        CFI DPH0 load(1, XDATA, add(CFA_XSP16, literal(-1)))
        CFI CFA_SP SP+0
        CFI CFA_XSP16 add(XSP16, 11)
        CFI Block cfiCond9 Using cfiCommon0
        CFI (cfiCond9) NoFunction
        CFI (cfiCond9) Conditional ??CrossCallReturnLabel_10
        CFI (cfiCond9) R6 load(1, XDATA, add(CFA_XSP16, literal(-10)))
        CFI (cfiCond9) VB load(1, XDATA, add(CFA_XSP16, literal(-9)))
        CFI (cfiCond9) V0 load(1, XDATA, add(CFA_XSP16, literal(-8)))
        CFI (cfiCond9) V1 load(1, XDATA, add(CFA_XSP16, literal(-7)))
        CFI (cfiCond9) R7 load(1, XDATA, add(CFA_XSP16, literal(-6)))
        CFI (cfiCond9) ?RET_LOW load(1, XDATA, add(CFA_XSP16, literal(-5)))
        CFI (cfiCond9) ?RET_HIGH load(1, XDATA, add(CFA_XSP16, literal(-4)))
        CFI (cfiCond9) ?BRET_EXT load(1, XDATA, add(CFA_XSP16, literal(-3)))
        CFI (cfiCond9) DPL0 load(1, XDATA, add(CFA_XSP16, literal(-2)))
        CFI (cfiCond9) DPH0 load(1, XDATA, add(CFA_XSP16, literal(-1)))
        CFI (cfiCond9) CFA_SP SP+0
        CFI (cfiCond9) CFA_XSP16 add(XSP16, 11)
        CFI Block cfiPicker10 Using cfiCommon1
        CFI (cfiPicker10) NoFunction
        CFI (cfiPicker10) Picker
        MOV     DPTR,#pMsg
        MOVX    A,@DPTR
        MOV     R2,A
        INC     DPTR
        MOVX    A,@DPTR
        MOV     R3,A
        MOV     DPTR,#App_TaskID
        MOVX    A,@DPTR
        MOV     R1,A
        LCALL   ??osal_msg_send?relay
        MOV     DPTR,#state
        RET
        CFI EndBlock cfiCond8
        CFI EndBlock cfiCond9
        CFI EndBlock cfiPicker10

        RSEG BANKED_CODE:CODE:NOROOT(0)
?Subroutine4:
        CFI Block cfiCond11 Using cfiCommon0
        CFI NoFunction
        CFI Conditional ??CrossCallReturnLabel_7
        CFI R6 load(1, XDATA, add(CFA_XSP16, literal(-10)))
        CFI VB load(1, XDATA, add(CFA_XSP16, literal(-9)))
        CFI V0 load(1, XDATA, add(CFA_XSP16, literal(-8)))
        CFI V1 load(1, XDATA, add(CFA_XSP16, literal(-7)))
        CFI R7 load(1, XDATA, add(CFA_XSP16, literal(-6)))
        CFI ?RET_LOW load(1, XDATA, add(CFA_XSP16, literal(-5)))
        CFI ?RET_HIGH load(1, XDATA, add(CFA_XSP16, literal(-4)))
        CFI ?BRET_EXT load(1, XDATA, add(CFA_XSP16, literal(-3)))
        CFI DPL0 load(1, XDATA, add(CFA_XSP16, literal(-2)))
        CFI DPH0 load(1, XDATA, add(CFA_XSP16, literal(-1)))
        CFI CFA_SP SP+-1
        CFI CFA_XSP16 add(XSP16, 11)
        CFI Block cfiCond12 Using cfiCommon0
        CFI (cfiCond12) NoFunction
        CFI (cfiCond12) Conditional ??CrossCallReturnLabel_8
        CFI (cfiCond12) R6 load(1, XDATA, add(CFA_XSP16, literal(-10)))
        CFI (cfiCond12) VB load(1, XDATA, add(CFA_XSP16, literal(-9)))
        CFI (cfiCond12) V0 load(1, XDATA, add(CFA_XSP16, literal(-8)))
        CFI (cfiCond12) V1 load(1, XDATA, add(CFA_XSP16, literal(-7)))
        CFI (cfiCond12) R7 load(1, XDATA, add(CFA_XSP16, literal(-6)))
        CFI (cfiCond12) ?RET_LOW load(1, XDATA, add(CFA_XSP16, literal(-5)))
        CFI (cfiCond12) ?RET_HIGH load(1, XDATA, add(CFA_XSP16, literal(-4)))
        CFI (cfiCond12) ?BRET_EXT load(1, XDATA, add(CFA_XSP16, literal(-3)))
        CFI (cfiCond12) DPL0 load(1, XDATA, add(CFA_XSP16, literal(-2)))
        CFI (cfiCond12) DPH0 load(1, XDATA, add(CFA_XSP16, literal(-1)))
        CFI (cfiCond12) CFA_SP SP+-1
        CFI (cfiCond12) CFA_XSP16 add(XSP16, 11)
        CFI Block cfiPicker13 Using cfiCommon1
        CFI (cfiPicker13) NoFunction
        CFI (cfiPicker13) Picker
        LCALL   ?Subroutine7 & 0xFFFF
??CrossCallReturnLabel_17:
        RET
        CFI EndBlock cfiCond11
        CFI EndBlock cfiCond12
        CFI EndBlock cfiPicker13

        RSEG BANKED_CODE:CODE:NOROOT(0)
?Subroutine7:
        CFI Block cfiCond14 Using cfiCommon0
        CFI NoFunction
        CFI Conditional ??CrossCallReturnLabel_17, ??CrossCallReturnLabel_7
        CFI R6 load(1, XDATA, add(CFA_XSP16, literal(-10)))
        CFI VB load(1, XDATA, add(CFA_XSP16, literal(-9)))
        CFI V0 load(1, XDATA, add(CFA_XSP16, literal(-8)))
        CFI V1 load(1, XDATA, add(CFA_XSP16, literal(-7)))
        CFI R7 load(1, XDATA, add(CFA_XSP16, literal(-6)))
        CFI ?RET_LOW load(1, XDATA, add(CFA_XSP16, literal(-5)))
        CFI ?RET_HIGH load(1, XDATA, add(CFA_XSP16, literal(-4)))
        CFI ?BRET_EXT load(1, XDATA, add(CFA_XSP16, literal(-3)))
        CFI DPL0 load(1, XDATA, add(CFA_XSP16, literal(-2)))
        CFI DPH0 load(1, XDATA, add(CFA_XSP16, literal(-1)))
        CFI CFA_SP SP+-1
        CFI CFA_XSP16 add(XSP16, 11)
        CFI Block cfiCond15 Using cfiCommon0
        CFI (cfiCond15) NoFunction
        CFI (cfiCond15) Conditional ??CrossCallReturnLabel_17, ??CrossCallReturnLabel_8
        CFI (cfiCond15) R6 load(1, XDATA, add(CFA_XSP16, literal(-10)))
        CFI (cfiCond15) VB load(1, XDATA, add(CFA_XSP16, literal(-9)))
        CFI (cfiCond15) V0 load(1, XDATA, add(CFA_XSP16, literal(-8)))
        CFI (cfiCond15) V1 load(1, XDATA, add(CFA_XSP16, literal(-7)))
        CFI (cfiCond15) R7 load(1, XDATA, add(CFA_XSP16, literal(-6)))
        CFI (cfiCond15) ?RET_LOW load(1, XDATA, add(CFA_XSP16, literal(-5)))
        CFI (cfiCond15) ?RET_HIGH load(1, XDATA, add(CFA_XSP16, literal(-4)))
        CFI (cfiCond15) ?BRET_EXT load(1, XDATA, add(CFA_XSP16, literal(-3)))
        CFI (cfiCond15) DPL0 load(1, XDATA, add(CFA_XSP16, literal(-2)))
        CFI (cfiCond15) DPH0 load(1, XDATA, add(CFA_XSP16, literal(-1)))
        CFI (cfiCond15) CFA_SP SP+-1
        CFI (cfiCond15) CFA_XSP16 add(XSP16, 11)
        CFI Block cfiCond16 Using cfiCommon0
        CFI (cfiCond16) NoFunction
        CFI (cfiCond16) Conditional ??CrossCallReturnLabel_16, ??CrossCallReturnLabel_5
        CFI (cfiCond16) R6 load(1, XDATA, add(CFA_XSP16, literal(-10)))
        CFI (cfiCond16) VB load(1, XDATA, add(CFA_XSP16, literal(-9)))
        CFI (cfiCond16) V0 load(1, XDATA, add(CFA_XSP16, literal(-8)))
        CFI (cfiCond16) V1 load(1, XDATA, add(CFA_XSP16, literal(-7)))
        CFI (cfiCond16) R7 load(1, XDATA, add(CFA_XSP16, literal(-6)))
        CFI (cfiCond16) ?RET_LOW load(1, XDATA, add(CFA_XSP16, literal(-5)))
        CFI (cfiCond16) ?RET_HIGH load(1, XDATA, add(CFA_XSP16, literal(-4)))
        CFI (cfiCond16) ?BRET_EXT load(1, XDATA, add(CFA_XSP16, literal(-3)))
        CFI (cfiCond16) DPL0 load(1, XDATA, add(CFA_XSP16, literal(-2)))
        CFI (cfiCond16) DPH0 load(1, XDATA, add(CFA_XSP16, literal(-1)))
        CFI (cfiCond16) CFA_SP SP+-1
        CFI (cfiCond16) CFA_XSP16 add(XSP16, 11)
        CFI Block cfiCond17 Using cfiCommon0
        CFI (cfiCond17) NoFunction
        CFI (cfiCond17) Conditional ??CrossCallReturnLabel_16, ??CrossCallReturnLabel_6
        CFI (cfiCond17) R6 load(1, XDATA, add(CFA_XSP16, literal(-10)))
        CFI (cfiCond17) VB load(1, XDATA, add(CFA_XSP16, literal(-9)))
        CFI (cfiCond17) V0 load(1, XDATA, add(CFA_XSP16, literal(-8)))
        CFI (cfiCond17) V1 load(1, XDATA, add(CFA_XSP16, literal(-7)))
        CFI (cfiCond17) R7 load(1, XDATA, add(CFA_XSP16, literal(-6)))
        CFI (cfiCond17) ?RET_LOW load(1, XDATA, add(CFA_XSP16, literal(-5)))
        CFI (cfiCond17) ?RET_HIGH load(1, XDATA, add(CFA_XSP16, literal(-4)))
        CFI (cfiCond17) ?BRET_EXT load(1, XDATA, add(CFA_XSP16, literal(-3)))
        CFI (cfiCond17) DPL0 load(1, XDATA, add(CFA_XSP16, literal(-2)))
        CFI (cfiCond17) DPH0 load(1, XDATA, add(CFA_XSP16, literal(-1)))
        CFI (cfiCond17) CFA_SP SP+-1
        CFI (cfiCond17) CFA_XSP16 add(XSP16, 11)
        CFI Block cfiPicker18 Using cfiCommon1
        CFI (cfiPicker18) NoFunction
        CFI (cfiPicker18) Picker
        MOVX    A,@DPTR
        MOV     R0,A
        CFI EndBlock cfiCond14
        CFI EndBlock cfiCond15
        CFI EndBlock cfiCond16
        CFI EndBlock cfiCond17
        CFI EndBlock cfiPicker18
        REQUIRE ??Subroutine10_0
        ; // Fall through to label ??Subroutine10_0

        RSEG BANKED_CODE:CODE:NOROOT(0)
??Subroutine10_0:
        CFI Block cfiCond19 Using cfiCommon0
        CFI NoFunction
        CFI Conditional ??CrossCallReturnLabel_15, ??CrossCallReturnLabel_3
        CFI R6 load(1, XDATA, add(CFA_XSP16, literal(-10)))
        CFI VB load(1, XDATA, add(CFA_XSP16, literal(-9)))
        CFI V0 load(1, XDATA, add(CFA_XSP16, literal(-8)))
        CFI V1 load(1, XDATA, add(CFA_XSP16, literal(-7)))
        CFI R7 load(1, XDATA, add(CFA_XSP16, literal(-6)))
        CFI ?RET_LOW load(1, XDATA, add(CFA_XSP16, literal(-5)))
        CFI ?RET_HIGH load(1, XDATA, add(CFA_XSP16, literal(-4)))
        CFI ?BRET_EXT load(1, XDATA, add(CFA_XSP16, literal(-3)))
        CFI DPL0 load(1, XDATA, add(CFA_XSP16, literal(-2)))
        CFI DPH0 load(1, XDATA, add(CFA_XSP16, literal(-1)))
        CFI CFA_SP SP+0
        CFI CFA_XSP16 add(XSP16, 11)
        CFI Block cfiCond20 Using cfiCommon0
        CFI (cfiCond20) NoFunction
        CFI (cfiCond20) Conditional ??CrossCallReturnLabel_15, ??CrossCallReturnLabel_4
        CFI (cfiCond20) R6 load(1, XDATA, add(CFA_XSP16, literal(-10)))
        CFI (cfiCond20) VB load(1, XDATA, add(CFA_XSP16, literal(-9)))
        CFI (cfiCond20) V0 load(1, XDATA, add(CFA_XSP16, literal(-8)))
        CFI (cfiCond20) V1 load(1, XDATA, add(CFA_XSP16, literal(-7)))
        CFI (cfiCond20) R7 load(1, XDATA, add(CFA_XSP16, literal(-6)))
        CFI (cfiCond20) ?RET_LOW load(1, XDATA, add(CFA_XSP16, literal(-5)))
        CFI (cfiCond20) ?RET_HIGH load(1, XDATA, add(CFA_XSP16, literal(-4)))
        CFI (cfiCond20) ?BRET_EXT load(1, XDATA, add(CFA_XSP16, literal(-3)))
        CFI (cfiCond20) DPL0 load(1, XDATA, add(CFA_XSP16, literal(-2)))
        CFI (cfiCond20) DPH0 load(1, XDATA, add(CFA_XSP16, literal(-1)))
        CFI (cfiCond20) CFA_SP SP+0
        CFI (cfiCond20) CFA_XSP16 add(XSP16, 11)
        CFI Block cfiCond21 Using cfiCommon0
        CFI (cfiCond21) NoFunction
        CFI (cfiCond21) Conditional ??CrossCallReturnLabel_17, ??CrossCallReturnLabel_7
        CFI (cfiCond21) R6 load(1, XDATA, add(CFA_XSP16, literal(-10)))
        CFI (cfiCond21) VB load(1, XDATA, add(CFA_XSP16, literal(-9)))
        CFI (cfiCond21) V0 load(1, XDATA, add(CFA_XSP16, literal(-8)))
        CFI (cfiCond21) V1 load(1, XDATA, add(CFA_XSP16, literal(-7)))
        CFI (cfiCond21) R7 load(1, XDATA, add(CFA_XSP16, literal(-6)))
        CFI (cfiCond21) ?RET_LOW load(1, XDATA, add(CFA_XSP16, literal(-5)))
        CFI (cfiCond21) ?RET_HIGH load(1, XDATA, add(CFA_XSP16, literal(-4)))
        CFI (cfiCond21) ?BRET_EXT load(1, XDATA, add(CFA_XSP16, literal(-3)))
        CFI (cfiCond21) DPL0 load(1, XDATA, add(CFA_XSP16, literal(-2)))
        CFI (cfiCond21) DPH0 load(1, XDATA, add(CFA_XSP16, literal(-1)))
        CFI (cfiCond21) CFA_SP SP+-1
        CFI (cfiCond21) CFA_XSP16 add(XSP16, 11)
        CFI Block cfiCond22 Using cfiCommon0
        CFI (cfiCond22) NoFunction
        CFI (cfiCond22) Conditional ??CrossCallReturnLabel_17, ??CrossCallReturnLabel_8
        CFI (cfiCond22) R6 load(1, XDATA, add(CFA_XSP16, literal(-10)))
        CFI (cfiCond22) VB load(1, XDATA, add(CFA_XSP16, literal(-9)))
        CFI (cfiCond22) V0 load(1, XDATA, add(CFA_XSP16, literal(-8)))
        CFI (cfiCond22) V1 load(1, XDATA, add(CFA_XSP16, literal(-7)))
        CFI (cfiCond22) R7 load(1, XDATA, add(CFA_XSP16, literal(-6)))
        CFI (cfiCond22) ?RET_LOW load(1, XDATA, add(CFA_XSP16, literal(-5)))
        CFI (cfiCond22) ?RET_HIGH load(1, XDATA, add(CFA_XSP16, literal(-4)))
        CFI (cfiCond22) ?BRET_EXT load(1, XDATA, add(CFA_XSP16, literal(-3)))
        CFI (cfiCond22) DPL0 load(1, XDATA, add(CFA_XSP16, literal(-2)))
        CFI (cfiCond22) DPH0 load(1, XDATA, add(CFA_XSP16, literal(-1)))
        CFI (cfiCond22) CFA_SP SP+-1
        CFI (cfiCond22) CFA_XSP16 add(XSP16, 11)
        CFI Block cfiCond23 Using cfiCommon0
        CFI (cfiCond23) NoFunction
        CFI (cfiCond23) Conditional ??CrossCallReturnLabel_16, ??CrossCallReturnLabel_5
        CFI (cfiCond23) R6 load(1, XDATA, add(CFA_XSP16, literal(-10)))
        CFI (cfiCond23) VB load(1, XDATA, add(CFA_XSP16, literal(-9)))
        CFI (cfiCond23) V0 load(1, XDATA, add(CFA_XSP16, literal(-8)))
        CFI (cfiCond23) V1 load(1, XDATA, add(CFA_XSP16, literal(-7)))
        CFI (cfiCond23) R7 load(1, XDATA, add(CFA_XSP16, literal(-6)))
        CFI (cfiCond23) ?RET_LOW load(1, XDATA, add(CFA_XSP16, literal(-5)))
        CFI (cfiCond23) ?RET_HIGH load(1, XDATA, add(CFA_XSP16, literal(-4)))
        CFI (cfiCond23) ?BRET_EXT load(1, XDATA, add(CFA_XSP16, literal(-3)))
        CFI (cfiCond23) DPL0 load(1, XDATA, add(CFA_XSP16, literal(-2)))
        CFI (cfiCond23) DPH0 load(1, XDATA, add(CFA_XSP16, literal(-1)))
        CFI (cfiCond23) CFA_SP SP+-1
        CFI (cfiCond23) CFA_XSP16 add(XSP16, 11)
        CFI Block cfiCond24 Using cfiCommon0
        CFI (cfiCond24) NoFunction
        CFI (cfiCond24) Conditional ??CrossCallReturnLabel_16, ??CrossCallReturnLabel_6
        CFI (cfiCond24) R6 load(1, XDATA, add(CFA_XSP16, literal(-10)))
        CFI (cfiCond24) VB load(1, XDATA, add(CFA_XSP16, literal(-9)))
        CFI (cfiCond24) V0 load(1, XDATA, add(CFA_XSP16, literal(-8)))
        CFI (cfiCond24) V1 load(1, XDATA, add(CFA_XSP16, literal(-7)))
        CFI (cfiCond24) R7 load(1, XDATA, add(CFA_XSP16, literal(-6)))
        CFI (cfiCond24) ?RET_LOW load(1, XDATA, add(CFA_XSP16, literal(-5)))
        CFI (cfiCond24) ?RET_HIGH load(1, XDATA, add(CFA_XSP16, literal(-4)))
        CFI (cfiCond24) ?BRET_EXT load(1, XDATA, add(CFA_XSP16, literal(-3)))
        CFI (cfiCond24) DPL0 load(1, XDATA, add(CFA_XSP16, literal(-2)))
        CFI (cfiCond24) DPH0 load(1, XDATA, add(CFA_XSP16, literal(-1)))
        CFI (cfiCond24) CFA_SP SP+-1
        CFI (cfiCond24) CFA_XSP16 add(XSP16, 11)
        CFI Block cfiPicker25 Using cfiCommon1
        CFI (cfiPicker25) NoFunction
        CFI (cfiPicker25) Picker
        LCALL   ?Subroutine9 & 0xFFFF
??CrossCallReturnLabel_19:
        MOVX    A,@DPTR
        ADD     A,R0
        RET
        CFI EndBlock cfiCond19
        CFI EndBlock cfiCond20
        CFI EndBlock cfiCond21
        CFI EndBlock cfiCond22
        CFI EndBlock cfiCond23
        CFI EndBlock cfiCond24
        CFI EndBlock cfiPicker25

        RSEG BANKED_CODE:CODE:NOROOT(0)
?Subroutine9:
        CFI Block cfiCond26 Using cfiCommon0
        CFI NoFunction
        CFI Conditional ??CrossCallReturnLabel_18
        CFI R6 load(1, XDATA, add(CFA_XSP16, literal(-10)))
        CFI VB load(1, XDATA, add(CFA_XSP16, literal(-9)))
        CFI V0 load(1, XDATA, add(CFA_XSP16, literal(-8)))
        CFI V1 load(1, XDATA, add(CFA_XSP16, literal(-7)))
        CFI R7 load(1, XDATA, add(CFA_XSP16, literal(-6)))
        CFI ?RET_LOW load(1, XDATA, add(CFA_XSP16, literal(-5)))
        CFI ?RET_HIGH load(1, XDATA, add(CFA_XSP16, literal(-4)))
        CFI ?BRET_EXT load(1, XDATA, add(CFA_XSP16, literal(-3)))
        CFI DPL0 load(1, XDATA, add(CFA_XSP16, literal(-2)))
        CFI DPH0 load(1, XDATA, add(CFA_XSP16, literal(-1)))
        CFI CFA_SP SP+0
        CFI CFA_XSP16 add(XSP16, 11)
        CFI Block cfiCond27 Using cfiCommon0
        CFI (cfiCond27) NoFunction
        CFI (cfiCond27) Conditional ??CrossCallReturnLabel_19, ??CrossCallReturnLabel_17, ??CrossCallReturnLabel_7
        CFI (cfiCond27) R6 load(1, XDATA, add(CFA_XSP16, literal(-10)))
        CFI (cfiCond27) VB load(1, XDATA, add(CFA_XSP16, literal(-9)))
        CFI (cfiCond27) V0 load(1, XDATA, add(CFA_XSP16, literal(-8)))
        CFI (cfiCond27) V1 load(1, XDATA, add(CFA_XSP16, literal(-7)))
        CFI (cfiCond27) R7 load(1, XDATA, add(CFA_XSP16, literal(-6)))
        CFI (cfiCond27) ?RET_LOW load(1, XDATA, add(CFA_XSP16, literal(-5)))
        CFI (cfiCond27) ?RET_HIGH load(1, XDATA, add(CFA_XSP16, literal(-4)))
        CFI (cfiCond27) ?BRET_EXT load(1, XDATA, add(CFA_XSP16, literal(-3)))
        CFI (cfiCond27) DPL0 load(1, XDATA, add(CFA_XSP16, literal(-2)))
        CFI (cfiCond27) DPH0 load(1, XDATA, add(CFA_XSP16, literal(-1)))
        CFI (cfiCond27) CFA_SP SP+-1
        CFI (cfiCond27) CFA_XSP16 add(XSP16, 11)
        CFI Block cfiCond28 Using cfiCommon0
        CFI (cfiCond28) NoFunction
        CFI (cfiCond28) Conditional ??CrossCallReturnLabel_19, ??CrossCallReturnLabel_17, ??CrossCallReturnLabel_8
        CFI (cfiCond28) R6 load(1, XDATA, add(CFA_XSP16, literal(-10)))
        CFI (cfiCond28) VB load(1, XDATA, add(CFA_XSP16, literal(-9)))
        CFI (cfiCond28) V0 load(1, XDATA, add(CFA_XSP16, literal(-8)))
        CFI (cfiCond28) V1 load(1, XDATA, add(CFA_XSP16, literal(-7)))
        CFI (cfiCond28) R7 load(1, XDATA, add(CFA_XSP16, literal(-6)))
        CFI (cfiCond28) ?RET_LOW load(1, XDATA, add(CFA_XSP16, literal(-5)))
        CFI (cfiCond28) ?RET_HIGH load(1, XDATA, add(CFA_XSP16, literal(-4)))
        CFI (cfiCond28) ?BRET_EXT load(1, XDATA, add(CFA_XSP16, literal(-3)))
        CFI (cfiCond28) DPL0 load(1, XDATA, add(CFA_XSP16, literal(-2)))
        CFI (cfiCond28) DPH0 load(1, XDATA, add(CFA_XSP16, literal(-1)))
        CFI (cfiCond28) CFA_SP SP+-1
        CFI (cfiCond28) CFA_XSP16 add(XSP16, 11)
        CFI Block cfiCond29 Using cfiCommon0
        CFI (cfiCond29) NoFunction
        CFI (cfiCond29) Conditional ??CrossCallReturnLabel_19, ??CrossCallReturnLabel_16, ??CrossCallReturnLabel_5
        CFI (cfiCond29) R6 load(1, XDATA, add(CFA_XSP16, literal(-10)))
        CFI (cfiCond29) VB load(1, XDATA, add(CFA_XSP16, literal(-9)))
        CFI (cfiCond29) V0 load(1, XDATA, add(CFA_XSP16, literal(-8)))
        CFI (cfiCond29) V1 load(1, XDATA, add(CFA_XSP16, literal(-7)))
        CFI (cfiCond29) R7 load(1, XDATA, add(CFA_XSP16, literal(-6)))
        CFI (cfiCond29) ?RET_LOW load(1, XDATA, add(CFA_XSP16, literal(-5)))
        CFI (cfiCond29) ?RET_HIGH load(1, XDATA, add(CFA_XSP16, literal(-4)))
        CFI (cfiCond29) ?BRET_EXT load(1, XDATA, add(CFA_XSP16, literal(-3)))
        CFI (cfiCond29) DPL0 load(1, XDATA, add(CFA_XSP16, literal(-2)))
        CFI (cfiCond29) DPH0 load(1, XDATA, add(CFA_XSP16, literal(-1)))
        CFI (cfiCond29) CFA_SP SP+-1
        CFI (cfiCond29) CFA_XSP16 add(XSP16, 11)
        CFI Block cfiCond30 Using cfiCommon0
        CFI (cfiCond30) NoFunction
        CFI (cfiCond30) Conditional ??CrossCallReturnLabel_19, ??CrossCallReturnLabel_16, ??CrossCallReturnLabel_6
        CFI (cfiCond30) R6 load(1, XDATA, add(CFA_XSP16, literal(-10)))
        CFI (cfiCond30) VB load(1, XDATA, add(CFA_XSP16, literal(-9)))
        CFI (cfiCond30) V0 load(1, XDATA, add(CFA_XSP16, literal(-8)))
        CFI (cfiCond30) V1 load(1, XDATA, add(CFA_XSP16, literal(-7)))
        CFI (cfiCond30) R7 load(1, XDATA, add(CFA_XSP16, literal(-6)))
        CFI (cfiCond30) ?RET_LOW load(1, XDATA, add(CFA_XSP16, literal(-5)))
        CFI (cfiCond30) ?RET_HIGH load(1, XDATA, add(CFA_XSP16, literal(-4)))
        CFI (cfiCond30) ?BRET_EXT load(1, XDATA, add(CFA_XSP16, literal(-3)))
        CFI (cfiCond30) DPL0 load(1, XDATA, add(CFA_XSP16, literal(-2)))
        CFI (cfiCond30) DPH0 load(1, XDATA, add(CFA_XSP16, literal(-1)))
        CFI (cfiCond30) CFA_SP SP+-1
        CFI (cfiCond30) CFA_XSP16 add(XSP16, 11)
        CFI Block cfiCond31 Using cfiCommon0
        CFI (cfiCond31) NoFunction
        CFI (cfiCond31) Conditional ??CrossCallReturnLabel_19, ??CrossCallReturnLabel_15, ??CrossCallReturnLabel_3
        CFI (cfiCond31) R6 load(1, XDATA, add(CFA_XSP16, literal(-10)))
        CFI (cfiCond31) VB load(1, XDATA, add(CFA_XSP16, literal(-9)))
        CFI (cfiCond31) V0 load(1, XDATA, add(CFA_XSP16, literal(-8)))
        CFI (cfiCond31) V1 load(1, XDATA, add(CFA_XSP16, literal(-7)))
        CFI (cfiCond31) R7 load(1, XDATA, add(CFA_XSP16, literal(-6)))
        CFI (cfiCond31) ?RET_LOW load(1, XDATA, add(CFA_XSP16, literal(-5)))
        CFI (cfiCond31) ?RET_HIGH load(1, XDATA, add(CFA_XSP16, literal(-4)))
        CFI (cfiCond31) ?BRET_EXT load(1, XDATA, add(CFA_XSP16, literal(-3)))
        CFI (cfiCond31) DPL0 load(1, XDATA, add(CFA_XSP16, literal(-2)))
        CFI (cfiCond31) DPH0 load(1, XDATA, add(CFA_XSP16, literal(-1)))
        CFI (cfiCond31) CFA_SP SP+0
        CFI (cfiCond31) CFA_XSP16 add(XSP16, 11)
        CFI Block cfiCond32 Using cfiCommon0
        CFI (cfiCond32) NoFunction
        CFI (cfiCond32) Conditional ??CrossCallReturnLabel_19, ??CrossCallReturnLabel_15, ??CrossCallReturnLabel_4
        CFI (cfiCond32) R6 load(1, XDATA, add(CFA_XSP16, literal(-10)))
        CFI (cfiCond32) VB load(1, XDATA, add(CFA_XSP16, literal(-9)))
        CFI (cfiCond32) V0 load(1, XDATA, add(CFA_XSP16, literal(-8)))
        CFI (cfiCond32) V1 load(1, XDATA, add(CFA_XSP16, literal(-7)))
        CFI (cfiCond32) R7 load(1, XDATA, add(CFA_XSP16, literal(-6)))
        CFI (cfiCond32) ?RET_LOW load(1, XDATA, add(CFA_XSP16, literal(-5)))
        CFI (cfiCond32) ?RET_HIGH load(1, XDATA, add(CFA_XSP16, literal(-4)))
        CFI (cfiCond32) ?BRET_EXT load(1, XDATA, add(CFA_XSP16, literal(-3)))
        CFI (cfiCond32) DPL0 load(1, XDATA, add(CFA_XSP16, literal(-2)))
        CFI (cfiCond32) DPH0 load(1, XDATA, add(CFA_XSP16, literal(-1)))
        CFI (cfiCond32) CFA_SP SP+0
        CFI (cfiCond32) CFA_XSP16 add(XSP16, 11)
        CFI Block cfiPicker33 Using cfiCommon1
        CFI (cfiPicker33) NoFunction
        CFI (cfiPicker33) Picker
        MOV     DPTR,#pMsg
        MOVX    A,@DPTR
        MOV     R2,A
        INC     DPTR
        MOVX    A,@DPTR
        MOV     DPH,A
        MOV     DPL,R2
        INC     DPTR
        INC     DPTR
        RET
        CFI EndBlock cfiCond26
        CFI EndBlock cfiCond27
        CFI EndBlock cfiCond28
        CFI EndBlock cfiCond29
        CFI EndBlock cfiCond30
        CFI EndBlock cfiCond31
        CFI EndBlock cfiCond32
        CFI EndBlock cfiPicker33

        RSEG BANKED_CODE:CODE:NOROOT(0)
?Subroutine3:
        CFI Block cfiCond34 Using cfiCommon0
        CFI NoFunction
        CFI Conditional ??CrossCallReturnLabel_5
        CFI R6 load(1, XDATA, add(CFA_XSP16, literal(-10)))
        CFI VB load(1, XDATA, add(CFA_XSP16, literal(-9)))
        CFI V0 load(1, XDATA, add(CFA_XSP16, literal(-8)))
        CFI V1 load(1, XDATA, add(CFA_XSP16, literal(-7)))
        CFI R7 load(1, XDATA, add(CFA_XSP16, literal(-6)))
        CFI ?RET_LOW load(1, XDATA, add(CFA_XSP16, literal(-5)))
        CFI ?RET_HIGH load(1, XDATA, add(CFA_XSP16, literal(-4)))
        CFI ?BRET_EXT load(1, XDATA, add(CFA_XSP16, literal(-3)))
        CFI DPL0 load(1, XDATA, add(CFA_XSP16, literal(-2)))
        CFI DPH0 load(1, XDATA, add(CFA_XSP16, literal(-1)))
        CFI CFA_SP SP+-1
        CFI CFA_XSP16 add(XSP16, 11)
        CFI Block cfiCond35 Using cfiCommon0
        CFI (cfiCond35) NoFunction
        CFI (cfiCond35) Conditional ??CrossCallReturnLabel_6
        CFI (cfiCond35) R6 load(1, XDATA, add(CFA_XSP16, literal(-10)))
        CFI (cfiCond35) VB load(1, XDATA, add(CFA_XSP16, literal(-9)))
        CFI (cfiCond35) V0 load(1, XDATA, add(CFA_XSP16, literal(-8)))
        CFI (cfiCond35) V1 load(1, XDATA, add(CFA_XSP16, literal(-7)))
        CFI (cfiCond35) R7 load(1, XDATA, add(CFA_XSP16, literal(-6)))
        CFI (cfiCond35) ?RET_LOW load(1, XDATA, add(CFA_XSP16, literal(-5)))
        CFI (cfiCond35) ?RET_HIGH load(1, XDATA, add(CFA_XSP16, literal(-4)))
        CFI (cfiCond35) ?BRET_EXT load(1, XDATA, add(CFA_XSP16, literal(-3)))
        CFI (cfiCond35) DPL0 load(1, XDATA, add(CFA_XSP16, literal(-2)))
        CFI (cfiCond35) DPH0 load(1, XDATA, add(CFA_XSP16, literal(-1)))
        CFI (cfiCond35) CFA_SP SP+-1
        CFI (cfiCond35) CFA_XSP16 add(XSP16, 11)
        CFI Block cfiPicker36 Using cfiCommon1
        CFI (cfiPicker36) NoFunction
        CFI (cfiPicker36) Picker
        MOV     DPTR,#POSI_Token
        LCALL   ?Subroutine7 & 0xFFFF
??CrossCallReturnLabel_16:
        LCALL   ?Subroutine8 & 0xFFFF
??CrossCallReturnLabel_14:
        INC     DPTR
        INC     DPTR
        INC     DPTR
        INC     DPTR
        RET
        CFI EndBlock cfiCond34
        CFI EndBlock cfiCond35
        CFI EndBlock cfiPicker36

        RSEG BANKED_CODE:CODE:NOROOT(0)
?Subroutine8:
        CFI Block cfiCond37 Using cfiCommon0
        CFI NoFunction
        CFI Conditional ??CrossCallReturnLabel_13
        CFI R6 load(1, XDATA, add(CFA_XSP16, literal(-10)))
        CFI VB load(1, XDATA, add(CFA_XSP16, literal(-9)))
        CFI V0 load(1, XDATA, add(CFA_XSP16, literal(-8)))
        CFI V1 load(1, XDATA, add(CFA_XSP16, literal(-7)))
        CFI R7 load(1, XDATA, add(CFA_XSP16, literal(-6)))
        CFI ?RET_LOW load(1, XDATA, add(CFA_XSP16, literal(-5)))
        CFI ?RET_HIGH load(1, XDATA, add(CFA_XSP16, literal(-4)))
        CFI ?BRET_EXT load(1, XDATA, add(CFA_XSP16, literal(-3)))
        CFI DPL0 load(1, XDATA, add(CFA_XSP16, literal(-2)))
        CFI DPH0 load(1, XDATA, add(CFA_XSP16, literal(-1)))
        CFI CFA_SP SP+-1
        CFI CFA_XSP16 add(XSP16, 11)
        CFI Block cfiCond38 Using cfiCommon0
        CFI (cfiCond38) NoFunction
        CFI (cfiCond38) Conditional ??CrossCallReturnLabel_14, ??CrossCallReturnLabel_5
        CFI (cfiCond38) R6 load(1, XDATA, add(CFA_XSP16, literal(-10)))
        CFI (cfiCond38) VB load(1, XDATA, add(CFA_XSP16, literal(-9)))
        CFI (cfiCond38) V0 load(1, XDATA, add(CFA_XSP16, literal(-8)))
        CFI (cfiCond38) V1 load(1, XDATA, add(CFA_XSP16, literal(-7)))
        CFI (cfiCond38) R7 load(1, XDATA, add(CFA_XSP16, literal(-6)))
        CFI (cfiCond38) ?RET_LOW load(1, XDATA, add(CFA_XSP16, literal(-5)))
        CFI (cfiCond38) ?RET_HIGH load(1, XDATA, add(CFA_XSP16, literal(-4)))
        CFI (cfiCond38) ?BRET_EXT load(1, XDATA, add(CFA_XSP16, literal(-3)))
        CFI (cfiCond38) DPL0 load(1, XDATA, add(CFA_XSP16, literal(-2)))
        CFI (cfiCond38) DPH0 load(1, XDATA, add(CFA_XSP16, literal(-1)))
        CFI (cfiCond38) CFA_SP SP+-1
        CFI (cfiCond38) CFA_XSP16 add(XSP16, 11)
        CFI Block cfiCond39 Using cfiCommon0
        CFI (cfiCond39) NoFunction
        CFI (cfiCond39) Conditional ??CrossCallReturnLabel_14, ??CrossCallReturnLabel_6
        CFI (cfiCond39) R6 load(1, XDATA, add(CFA_XSP16, literal(-10)))
        CFI (cfiCond39) VB load(1, XDATA, add(CFA_XSP16, literal(-9)))
        CFI (cfiCond39) V0 load(1, XDATA, add(CFA_XSP16, literal(-8)))
        CFI (cfiCond39) V1 load(1, XDATA, add(CFA_XSP16, literal(-7)))
        CFI (cfiCond39) R7 load(1, XDATA, add(CFA_XSP16, literal(-6)))
        CFI (cfiCond39) ?RET_LOW load(1, XDATA, add(CFA_XSP16, literal(-5)))
        CFI (cfiCond39) ?RET_HIGH load(1, XDATA, add(CFA_XSP16, literal(-4)))
        CFI (cfiCond39) ?BRET_EXT load(1, XDATA, add(CFA_XSP16, literal(-3)))
        CFI (cfiCond39) DPL0 load(1, XDATA, add(CFA_XSP16, literal(-2)))
        CFI (cfiCond39) DPH0 load(1, XDATA, add(CFA_XSP16, literal(-1)))
        CFI (cfiCond39) CFA_SP SP+-1
        CFI (cfiCond39) CFA_XSP16 add(XSP16, 11)
        CFI Block cfiPicker40 Using cfiCommon1
        CFI (cfiPicker40) NoFunction
        CFI (cfiPicker40) Picker
        MOV     R2,A
        INC     DPTR
        MOVX    A,@DPTR
        ADDC    A,#0x0
        MOV     DPL,R2
        MOV     DPH,A
        INC     DPTR
        RET
        CFI EndBlock cfiCond37
        CFI EndBlock cfiCond38
        CFI EndBlock cfiCond39
        CFI EndBlock cfiPicker40

        RSEG BANKED_CODE:CODE:NOROOT(0)
?Subroutine2:
        CFI Block cfiCond41 Using cfiCommon0
        CFI NoFunction
        CFI Conditional ??CrossCallReturnLabel_3
        CFI R6 load(1, XDATA, add(CFA_XSP16, literal(-10)))
        CFI VB load(1, XDATA, add(CFA_XSP16, literal(-9)))
        CFI V0 load(1, XDATA, add(CFA_XSP16, literal(-8)))
        CFI V1 load(1, XDATA, add(CFA_XSP16, literal(-7)))
        CFI R7 load(1, XDATA, add(CFA_XSP16, literal(-6)))
        CFI ?RET_LOW load(1, XDATA, add(CFA_XSP16, literal(-5)))
        CFI ?RET_HIGH load(1, XDATA, add(CFA_XSP16, literal(-4)))
        CFI ?BRET_EXT load(1, XDATA, add(CFA_XSP16, literal(-3)))
        CFI DPL0 load(1, XDATA, add(CFA_XSP16, literal(-2)))
        CFI DPH0 load(1, XDATA, add(CFA_XSP16, literal(-1)))
        CFI CFA_SP SP+0
        CFI CFA_XSP16 add(XSP16, 11)
        CFI Block cfiCond42 Using cfiCommon0
        CFI (cfiCond42) NoFunction
        CFI (cfiCond42) Conditional ??CrossCallReturnLabel_4
        CFI (cfiCond42) R6 load(1, XDATA, add(CFA_XSP16, literal(-10)))
        CFI (cfiCond42) VB load(1, XDATA, add(CFA_XSP16, literal(-9)))
        CFI (cfiCond42) V0 load(1, XDATA, add(CFA_XSP16, literal(-8)))
        CFI (cfiCond42) V1 load(1, XDATA, add(CFA_XSP16, literal(-7)))
        CFI (cfiCond42) R7 load(1, XDATA, add(CFA_XSP16, literal(-6)))
        CFI (cfiCond42) ?RET_LOW load(1, XDATA, add(CFA_XSP16, literal(-5)))
        CFI (cfiCond42) ?RET_HIGH load(1, XDATA, add(CFA_XSP16, literal(-4)))
        CFI (cfiCond42) ?BRET_EXT load(1, XDATA, add(CFA_XSP16, literal(-3)))
        CFI (cfiCond42) DPL0 load(1, XDATA, add(CFA_XSP16, literal(-2)))
        CFI (cfiCond42) DPH0 load(1, XDATA, add(CFA_XSP16, literal(-1)))
        CFI (cfiCond42) CFA_SP SP+0
        CFI (cfiCond42) CFA_XSP16 add(XSP16, 11)
        CFI Block cfiPicker43 Using cfiCommon1
        CFI (cfiPicker43) NoFunction
        CFI (cfiPicker43) Picker
        LCALL   ??Subroutine10_0 & 0xFFFF
??CrossCallReturnLabel_15:
        MOV     R0,A
        INC     DPTR
        MOVX    A,@DPTR
        ADDC    A,#0x0
        MOV     R1,A
        MOV     A,R0
        ADD     A,#0xd
        MOV     R2,A
        MOV     A,R1
        ADDC    A,#0x0
        MOV     R3,A
        MOV     A,R6
        MOV     R1,A
        LCALL   ??HalUARTRead?relay
        RET
        CFI EndBlock cfiCond41
        CFI EndBlock cfiCond42
        CFI EndBlock cfiPicker43

        RSEG BANKED_CODE:CODE:NOROOT(0)
?Subroutine1:
        CFI Block cfiCond44 Using cfiCommon0
        CFI NoFunction
        CFI Conditional ??CrossCallReturnLabel_0
        CFI R6 load(1, XDATA, add(CFA_XSP16, literal(-10)))
        CFI VB load(1, XDATA, add(CFA_XSP16, literal(-9)))
        CFI V0 load(1, XDATA, add(CFA_XSP16, literal(-8)))
        CFI V1 load(1, XDATA, add(CFA_XSP16, literal(-7)))
        CFI R7 load(1, XDATA, add(CFA_XSP16, literal(-6)))
        CFI ?RET_LOW load(1, XDATA, add(CFA_XSP16, literal(-5)))
        CFI ?RET_HIGH load(1, XDATA, add(CFA_XSP16, literal(-4)))
        CFI ?BRET_EXT load(1, XDATA, add(CFA_XSP16, literal(-3)))
        CFI DPL0 load(1, XDATA, add(CFA_XSP16, literal(-2)))
        CFI DPH0 load(1, XDATA, add(CFA_XSP16, literal(-1)))
        CFI CFA_SP SP+0
        CFI CFA_XSP16 add(XSP16, 11)
        CFI Block cfiCond45 Using cfiCommon0
        CFI (cfiCond45) NoFunction
        CFI (cfiCond45) Conditional ??CrossCallReturnLabel_1
        CFI (cfiCond45) R6 load(1, XDATA, add(CFA_XSP16, literal(-10)))
        CFI (cfiCond45) VB load(1, XDATA, add(CFA_XSP16, literal(-9)))
        CFI (cfiCond45) V0 load(1, XDATA, add(CFA_XSP16, literal(-8)))
        CFI (cfiCond45) V1 load(1, XDATA, add(CFA_XSP16, literal(-7)))
        CFI (cfiCond45) R7 load(1, XDATA, add(CFA_XSP16, literal(-6)))
        CFI (cfiCond45) ?RET_LOW load(1, XDATA, add(CFA_XSP16, literal(-5)))
        CFI (cfiCond45) ?RET_HIGH load(1, XDATA, add(CFA_XSP16, literal(-4)))
        CFI (cfiCond45) ?BRET_EXT load(1, XDATA, add(CFA_XSP16, literal(-3)))
        CFI (cfiCond45) DPL0 load(1, XDATA, add(CFA_XSP16, literal(-2)))
        CFI (cfiCond45) DPH0 load(1, XDATA, add(CFA_XSP16, literal(-1)))
        CFI (cfiCond45) CFA_SP SP+0
        CFI (cfiCond45) CFA_XSP16 add(XSP16, 11)
        CFI Block cfiCond46 Using cfiCommon0
        CFI (cfiCond46) NoFunction
        CFI (cfiCond46) Conditional ??CrossCallReturnLabel_2
        CFI (cfiCond46) R6 load(1, XDATA, add(CFA_XSP16, literal(-10)))
        CFI (cfiCond46) VB load(1, XDATA, add(CFA_XSP16, literal(-9)))
        CFI (cfiCond46) V0 load(1, XDATA, add(CFA_XSP16, literal(-8)))
        CFI (cfiCond46) V1 load(1, XDATA, add(CFA_XSP16, literal(-7)))
        CFI (cfiCond46) R7 load(1, XDATA, add(CFA_XSP16, literal(-6)))
        CFI (cfiCond46) ?RET_LOW load(1, XDATA, add(CFA_XSP16, literal(-5)))
        CFI (cfiCond46) ?RET_HIGH load(1, XDATA, add(CFA_XSP16, literal(-4)))
        CFI (cfiCond46) ?BRET_EXT load(1, XDATA, add(CFA_XSP16, literal(-3)))
        CFI (cfiCond46) DPL0 load(1, XDATA, add(CFA_XSP16, literal(-2)))
        CFI (cfiCond46) DPH0 load(1, XDATA, add(CFA_XSP16, literal(-1)))
        CFI (cfiCond46) CFA_SP SP+0
        CFI (cfiCond46) CFA_XSP16 add(XSP16, 11)
        CFI Block cfiPicker47 Using cfiCommon1
        CFI (cfiPicker47) NoFunction
        CFI (cfiPicker47) Picker
        MOVX    @DPTR,A
        MOV     DPTR,#POSI_Token
        MOVX    A,@DPTR
        INC     A
        MOVX    @DPTR,A
        CLR     C
        SUBB    A,#0x4
        RET
        CFI EndBlock cfiCond44
        CFI EndBlock cfiCond45
        CFI EndBlock cfiCond46
        CFI EndBlock cfiPicker47

        RSEG BANK_RELAYS:CODE:REORDER:NOROOT(0)
??MT_UartInit?relay:
        LCALL   ?BDISPATCH
        DATA
        DC24    MT_UartInit

        RSEG BANK_RELAYS:CODE:REORDER:NOROOT(0)
??MT_UartRegisterTaskID?relay:
        LCALL   ?BDISPATCH
        DATA
        DC24    MT_UartRegisterTaskID

        RSEG BANK_RELAYS:CODE:REORDER:NOROOT(0)
??MT_UartCalcFCS?relay:
        LCALL   ?BDISPATCH
        DATA
        DC24    MT_UartCalcFCS

        RSEG BANK_RELAYS:CODE:REORDER:NOROOT(0)
??MT_UartProcessZToolData?relay:
        LCALL   ?BDISPATCH
        DATA
        DC24    MT_UartProcessZToolData

        END
//  489 
//  490 #if defined (ZAPP_P1) || defined (ZAPP_P2)
//  491 /***************************************************************************************************
//  492  * @fn      MT_UartProcessZAppData
//  493  *
//  494  * @brief   | SOP | CMD  |   Data Length   | FSC  |
//  495  *          |  1  |  2   |       1         |  1   |
//  496  *
//  497  *          Parses the data and determine either is SPI or just simply serial data
//  498  *          then send the data to correct place (MT or APP)
//  499  *
//  500  * @param   port    - UART port
//  501  *          event   - Event that causes the callback
//  502  *
//  503  *
//  504  * @return  None
//  505  ***************************************************************************************************/
//  506 void MT_UartProcessZAppData ( uint8 port, uint8 event )
//  507 {
//  508 
//  509   osal_event_hdr_t  *msg_ptr;
//  510   uint16 length = 0;
//  511   uint16 rxBufLen  = Hal_UART_RxBufLen(MT_UART_DEFAULT_PORT);
//  512 
//  513   /*
//  514      If maxZAppBufferLength is 0 or larger than current length
//  515      the entire length of the current buffer is returned.
//  516   */
//  517   if ((MT_UartMaxZAppBufLen != 0) && (MT_UartMaxZAppBufLen <= rxBufLen))
//  518   {
//  519     length = MT_UartMaxZAppBufLen;
//  520   }
//  521   else
//  522   {
//  523     length = rxBufLen;
//  524   }
//  525 
//  526   /* Verify events */
//  527   if (event == HAL_UART_TX_FULL)
//  528   {
//  529     // Do something when TX if full
//  530     return;
//  531   }
//  532 
//  533   if (event & ( HAL_UART_RX_FULL | HAL_UART_RX_ABOUT_FULL | HAL_UART_RX_TIMEOUT))
//  534   {
//  535     if ( App_TaskID )
//  536     {
//  537       /*
//  538          If Application is ready to receive and there is something
//  539          in the Rx buffer then send it up
//  540       */
//  541       if ((MT_UartZAppRxStatus == MT_UART_ZAPP_RX_READY ) && (length != 0))
//  542       {
//  543         /* Disable App flow control until it processes the current data */
//  544          MT_UartAppFlowControl (MT_UART_ZAPP_RX_NOT_READY);
//  545 
//  546         /* 2 more bytes are added, 1 for CMD type, other for length */
//  547         msg_ptr = (osal_event_hdr_t *)osal_msg_allocate( length + sizeof(osal_event_hdr_t) );
//  548         if ( msg_ptr )
//  549         {
//  550           msg_ptr->event = SPI_INCOMING_ZAPP_DATA;
//  551           msg_ptr->status = length;
//  552 
//  553           /* Read the data of Rx buffer */
//  554           HalUARTRead( MT_UART_DEFAULT_PORT, (uint8 *)(msg_ptr + 1), length );
//  555 
//  556           /* Send the raw data to application...or where ever */
//  557           osal_msg_send( App_TaskID, (uint8 *)msg_ptr );
//  558         }
//  559       }
//  560     }
//  561   }
//  562 }
//  563 
//  564 /***************************************************************************************************
//  565  * @fn      SPIMgr_ZAppBufferLengthRegister
//  566  *
//  567  * @brief
//  568  *
//  569  * @param   maxLen - Max Length that the application wants at a time
//  570  *
//  571  * @return  None
//  572  *
//  573  ***************************************************************************************************/
//  574 void MT_UartZAppBufferLengthRegister ( uint16 maxLen )
//  575 {
//  576   /* If the maxLen is larger than the RX buff, something is not right */
//  577   if (maxLen <= MT_UART_DEFAULT_MAX_RX_BUFF)
//  578     MT_UartMaxZAppBufLen = maxLen;
//  579   else
//  580     MT_UartMaxZAppBufLen = 1; /* default is 1 byte */
//  581 }
//  582 
//  583 /***************************************************************************************************
//  584  * @fn      SPIMgr_AppFlowControl
//  585  *
//  586  * @brief
//  587  *
//  588  * @param   status - ready to send or not
//  589  *
//  590  * @return  None
//  591  *
//  592  ***************************************************************************************************/
//  593 void MT_UartAppFlowControl ( bool status )
//  594 {
//  595 
//  596   /* Make sure only update if needed */
//  597   if (status != MT_UartZAppRxStatus )
//  598   {
//  599     MT_UartZAppRxStatus = status;
//  600   }
//  601 
//  602   /* App is ready to read again, ProcessZAppData have to be triggered too */
//  603   if (status == MT_UART_ZAPP_RX_READY)
//  604   {
//  605     MT_UartProcessZAppData (MT_UART_DEFAULT_PORT, HAL_UART_RX_TIMEOUT );
//  606   }
//  607 
//  608 }
//  609 
//  610 #endif //ZAPP
//  611 
//  612 /***************************************************************************************************
//  613 ***************************************************************************************************/
// 
// 752 bytes in segment BANKED_CODE
//  24 bytes in segment BANK_RELAYS
//  10 bytes in segment XDATA_Z
// 
// 776 bytes of CODE  memory
//  10 bytes of XDATA memory
//
//Errors: none
//Warnings: none
