###############################################################################
#                                                                             #
# IAR C/C++ Compiler V8.10.3.10338/W32 for 8051         21/Apr/2018  12:04:01 #
# Copyright 2004-2011 IAR Systems AB.                                         #
#                                                                             #
#    Core               =  plain                                              #
#    Code model         =  banked                                             #
#    Data model         =  large                                              #
#    Calling convention =  xdata reentrant                                    #
#    Constant location  =  data_rom                                           #
#    Dptr setup         =  1,16                                               #
#    Source file        =  E:\Coding\IAR\RFTag\ZigBeeDev\5_ZStack-2.5.1a\Proj #
#                          ects\zstack\Samples\SampleApp\Source\SampleApp.c   #
#    Command line       =  -f E:\Coding\IAR\RFTag\ZigBeeDev\5_ZStack-2.5.1a\P #
#                          rojects\zstack\Samples\SampleApp\CC2530DB\..\..\.. #
#                          \Tools\CC2530DB\f8wCoord.cfg (-DCPU32MHZ           #
#                          -DROOT=__near_func -DMAC_CFG_APP_PENDING_QUEUE=TRU #
#                          E -DMAC_CFG_TX_DATA_MAX=5 -DMAC_CFG_TX_MAX=8       #
#                          -DMAC_CFG_RX_MAX=5 -DZDO_COORDINATOR -DRTR_NWK)    #
#                          -f E:\Coding\IAR\RFTag\ZigBeeDev\5_ZStack-2.5.1a\P #
#                          rojects\zstack\Samples\SampleApp\CC2530DB\..\..\.. #
#                          \Tools\CC2530DB\f8wConfig.cfg (-DZIGBEEPRO         #
#                          -DSECURE=0 -DZG_SECURE_DYNAMIC=0 -DREFLECTOR       #
#                          -DDEFAULT_CHANLIST=0x00000800                      #
#                          -DZDAPP_CONFIG_PAN_ID=0xFFF1                       #
#                          -DNWK_START_DELAY=100 -DEXTENDED_JOINING_RANDOM_MA #
#                          SK=0x007F -DBEACON_REQUEST_DELAY=100               #
#                          -DBEACON_REQ_DELAY_MASK=0x00FF                     #
#                          -DLINK_STATUS_JITTER_MASK=0x007F                   #
#                          -DROUTE_EXPIRY_TIME=30 -DAPSC_ACK_WAIT_DURATION_PO #
#                          LLED=3000 -DNWK_INDIRECT_MSG_TIMEOUT=7             #
#                          -DMAX_RREQ_ENTRIES=8 -DAPSC_MAX_FRAME_RETRIES=3    #
#                          -DNWK_MAX_DATA_RETRIES=2                           #
#                          -DMAX_POLL_FAILURE_RETRIES=2 -DMAX_BCAST=9         #
#                          -DAPS_MAX_GROUPS=16 -DMAX_RTG_ENTRIES=40           #
#                          -DNWK_MAX_BINDING_ENTRIES=4                        #
#                          -DMAX_BINDING_CLUSTER_IDS=4 "-DDEFAULT_KEY={0x01,  #
#                          0x03, 0x05, 0x07, 0x09, 0x0B, 0x0D, 0x0F, 0x00,    #
#                          0x02, 0x04, 0x06, 0x08, 0x0A, 0x0C, 0x0D}"         #
#                          -DMAC_MAX_FRAME_SIZE=116                           #
#                          -DZDNWKMGR_MIN_TRANSMISSIONS=20 "-DCONST=const     #
#                          __code" -DGENERIC=__generic                        #
#                          -DRFD_RCVC_ALWAYS_ON=FALSE -DPOLL_RATE=1000        #
#                          -DQUEUED_POLL_RATE=100 -DRESPONSE_POLL_RATE=100)   #
#                          -DREJOIN_POLL_RATE=440 E:\Coding\IAR\RFTag\ZigBeeD #
#                          ev\5_ZStack-2.5.1a\Projects\zstack\Samples\SampleA #
#                          pp\Source\SampleApp.c -D ZTOOL_P1 -D xMT_TASK -D   #
#                          xMT_SYS_FUNC -D xMT_ZDO_FUNC -D                    #
#                          LCD_SUPPORTED=DEBUG -lC E:\Coding\IAR\RFTag\ZigBee #
#                          Dev\5_ZStack-2.5.1a\Projects\zstack\Samples\Sample #
#                          App\CC2530DB\CoordinatorEB\List\ -lA               #
#                          E:\Coding\IAR\RFTag\ZigBeeDev\5_ZStack-2.5.1a\Proj #
#                          ects\zstack\Samples\SampleApp\CC2530DB\Coordinator #
#                          EB\List\ --diag_suppress Pe001,Pa010 -o            #
#                          E:\Coding\IAR\RFTag\ZigBeeDev\5_ZStack-2.5.1a\Proj #
#                          ects\zstack\Samples\SampleApp\CC2530DB\Coordinator #
#                          EB\Obj\ -e --no_code_motion --debug --core=plain   #
#                          --dptr=16,1 --data_model=large                     #
#                          --code_model=banked --calling_convention=xdata_ree #
#                          ntrant --place_constants=data_rom                  #
#                          --nr_virtual_regs 16 -I E:\Coding\IAR\RFTag\ZigBee #
#                          Dev\5_ZStack-2.5.1a\Projects\zstack\Samples\Sample #
#                          App\CC2530DB\ -I E:\Coding\IAR\RFTag\ZigBeeDev\5_Z #
#                          Stack-2.5.1a\Projects\zstack\Samples\SampleApp\CC2 #
#                          530DB\..\Source\ -I E:\Coding\IAR\RFTag\ZigBeeDev\ #
#                          5_ZStack-2.5.1a\Projects\zstack\Samples\SampleApp\ #
#                          CC2530DB\..\..\..\ZMain\TI2530DB\ -I               #
#                          E:\Coding\IAR\RFTag\ZigBeeDev\5_ZStack-2.5.1a\Proj #
#                          ects\zstack\Samples\SampleApp\CC2530DB\..\..\..\.. #
#                          \..\Components\hal\include\ -I                     #
#                          E:\Coding\IAR\RFTag\ZigBeeDev\5_ZStack-2.5.1a\Proj #
#                          ects\zstack\Samples\SampleApp\CC2530DB\..\..\..\.. #
#                          \..\Components\hal\target\CC2530EB\ -I             #
#                          E:\Coding\IAR\RFTag\ZigBeeDev\5_ZStack-2.5.1a\Proj #
#                          ects\zstack\Samples\SampleApp\CC2530DB\..\..\..\.. #
#                          \..\Components\mac\include\ -I                     #
#                          E:\Coding\IAR\RFTag\ZigBeeDev\5_ZStack-2.5.1a\Proj #
#                          ects\zstack\Samples\SampleApp\CC2530DB\..\..\..\.. #
#                          \..\Components\mac\high_level\ -I                  #
#                          E:\Coding\IAR\RFTag\ZigBeeDev\5_ZStack-2.5.1a\Proj #
#                          ects\zstack\Samples\SampleApp\CC2530DB\..\..\..\.. #
#                          \..\Components\mac\low_level\srf04\ -I             #
#                          E:\Coding\IAR\RFTag\ZigBeeDev\5_ZStack-2.5.1a\Proj #
#                          ects\zstack\Samples\SampleApp\CC2530DB\..\..\..\.. #
#                          \..\Components\mac\low_level\srf04\single_chip\    #
#                          -I E:\Coding\IAR\RFTag\ZigBeeDev\5_ZStack-2.5.1a\P #
#                          rojects\zstack\Samples\SampleApp\CC2530DB\..\..\.. #
#                          \..\..\Components\mt\ -I                           #
#                          E:\Coding\IAR\RFTag\ZigBeeDev\5_ZStack-2.5.1a\Proj #
#                          ects\zstack\Samples\SampleApp\CC2530DB\..\..\..\.. #
#                          \..\Components\osal\include\ -I                    #
#                          E:\Coding\IAR\RFTag\ZigBeeDev\5_ZStack-2.5.1a\Proj #
#                          ects\zstack\Samples\SampleApp\CC2530DB\..\..\..\.. #
#                          \..\Components\services\saddr\ -I                  #
#                          E:\Coding\IAR\RFTag\ZigBeeDev\5_ZStack-2.5.1a\Proj #
#                          ects\zstack\Samples\SampleApp\CC2530DB\..\..\..\.. #
#                          \..\Components\services\sdata\ -I                  #
#                          E:\Coding\IAR\RFTag\ZigBeeDev\5_ZStack-2.5.1a\Proj #
#                          ects\zstack\Samples\SampleApp\CC2530DB\..\..\..\.. #
#                          \..\Components\stack\af\ -I                        #
#                          E:\Coding\IAR\RFTag\ZigBeeDev\5_ZStack-2.5.1a\Proj #
#                          ects\zstack\Samples\SampleApp\CC2530DB\..\..\..\.. #
#                          \..\Components\stack\nwk\ -I                       #
#                          E:\Coding\IAR\RFTag\ZigBeeDev\5_ZStack-2.5.1a\Proj #
#                          ects\zstack\Samples\SampleApp\CC2530DB\..\..\..\.. #
#                          \..\Components\stack\sapi\ -I                      #
#                          E:\Coding\IAR\RFTag\ZigBeeDev\5_ZStack-2.5.1a\Proj #
#                          ects\zstack\Samples\SampleApp\CC2530DB\..\..\..\.. #
#                          \..\Components\stack\sec\ -I                       #
#                          E:\Coding\IAR\RFTag\ZigBeeDev\5_ZStack-2.5.1a\Proj #
#                          ects\zstack\Samples\SampleApp\CC2530DB\..\..\..\.. #
#                          \..\Components\stack\sys\ -I                       #
#                          E:\Coding\IAR\RFTag\ZigBeeDev\5_ZStack-2.5.1a\Proj #
#                          ects\zstack\Samples\SampleApp\CC2530DB\..\..\..\.. #
#                          \..\Components\stack\zdo\ -I                       #
#                          E:\Coding\IAR\RFTag\ZigBeeDev\5_ZStack-2.5.1a\Proj #
#                          ects\zstack\Samples\SampleApp\CC2530DB\..\..\..\.. #
#                          \..\Components\zmac\ -I E:\Coding\IAR\RFTag\ZigBee #
#                          Dev\5_ZStack-2.5.1a\Projects\zstack\Samples\Sample #
#                          App\CC2530DB\..\..\..\..\..\Components\zmac\f8w\   #
#                          -Ohz --require_prototypes                          #
#    List file          =  E:\Coding\IAR\RFTag\ZigBeeDev\5_ZStack-2.5.1a\Proj #
#                          ects\zstack\Samples\SampleApp\CC2530DB\Coordinator #
#                          EB\List\SampleApp.lst                              #
#    Object file        =  E:\Coding\IAR\RFTag\ZigBeeDev\5_ZStack-2.5.1a\Proj #
#                          ects\zstack\Samples\SampleApp\CC2530DB\Coordinator #
#                          EB\Obj\SampleApp.r51                               #
#                                                                             #
#                                                                             #
###############################################################################

E:\Coding\IAR\RFTag\ZigBeeDev\5_ZStack-2.5.1a\Projects\zstack\Samples\SampleApp\Source\SampleApp.c
      1          /**************************************************************************************************
      2            Filename:       SampleApp.c
      3            Revised:        $Date: 2009-03-18 15:56:27 -0700 (Wed, 18 Mar 2009) $
      4            Revision:       $Revision: 19453 $
      5          
      6            Description:    Sample Application (no Profile).
      7          
      8          
      9            Copyright 2007 Texas Instruments Incorporated. All rights reserved.
     10          
     11            IMPORTANT: Your use of this Software is limited to those specific rights
     12            granted under the terms of a software license agreement between the user
     13            who downloaded the software, his/her employer (which must be your employer)
     14            and Texas Instruments Incorporated (the "License").  You may not use this
     15            Software unless you agree to abide by the terms of the License. The License
     16            limits your use, and you acknowledge, that the Software may not be modified,
     17            copied or distributed unless embedded on a Texas Instruments microcontroller
     18            or used solely and exclusively in conjunction with a Texas Instruments radio
     19            frequency transceiver, which is integrated into your product.  Other than for
     20            the foregoing purpose, you may not use, reproduce, copy, prepare derivative
     21            works of, modify, distribute, perform, display or sell this Software and/or
     22            its documentation for any purpose.
     23          
     24            YOU FURTHER ACKNOWLEDGE AND AGREE THAT THE SOFTWARE AND DOCUMENTATION ARE
     25            PROVIDED AS IS?WITHOUT WARRANTY OF ANY KIND, EITHER EXPRESS OR IMPLIED,
     26            INCLUDING WITHOUT LIMITATION, ANY WARRANTY OF MERCHANTABILITY, TITLE,
     27            NON-INFRINGEMENT AND FITNESS FOR A PARTICULAR PURPOSE. IN NO EVENT SHALL
     28            TEXAS INSTRUMENTS OR ITS LICENSORS BE LIABLE OR OBLIGATED UNDER CONTRACT,
     29            NEGLIGENCE, STRICT LIABILITY, CONTRIBUTION, BREACH OF WARRANTY, OR OTHER
     30            LEGAL EQUITABLE THEORY ANY DIRECT OR INDIRECT DAMAGES OR EXPENSES
     31            INCLUDING BUT NOT LIMITED TO ANY INCIDENTAL, SPECIAL, INDIRECT, PUNITIVE
     32            OR CONSEQUENTIAL DAMAGES, LOST PROFITS OR LOST DATA, COST OF PROCUREMENT
     33            OF SUBSTITUTE GOODS, TECHNOLOGY, SERVICES, OR ANY CLAIMS BY THIRD PARTIES
     34            (INCLUDING BUT NOT LIMITED TO ANY DEFENSE THEREOF), OR OTHER SIMILAR COSTS.
     35          
     36            Should you have any questions regarding your right to use this Software,
     37            contact Texas Instruments Incorporated at www.TI.com.
     38          **************************************************************************************************/
     39          
     40          /*********************************************************************
     41            This application isn't intended to do anything useful, it is
     42            intended to be a simple example of an application's structure.
     43          
     44            This application sends it's messages either as broadcast or
     45            broadcast filtered group messages.  The other (more normal)
     46            message addressing is unicast.  Most of the other sample
     47            applications are written to support the unicast message model.
     48          
     49            Key control:
     50              SW1:  Sends a flash command to all devices in Group 1.
     51              SW2:  Adds/Removes (toggles) this device in and out
     52                    of Group 1.  This will enable and disable the
     53                    reception of the flash command.
     54          *********************************************************************/
     55          
     56          /*********************************************************************
     57           * INCLUDES
     58           */
     59          #include "OSAL.h"
     60          #include "ZGlobals.h"
     61          #include "AF.h"
     62          #include "aps_groups.h"
     63          #include "ZDApp.h"
     64          
     65          #include "SampleApp.h"
     66          #include "SampleAppHw.h"
     67          #include "SampleRF.h"
     68          #include "SampleUtils.h"
     69          
     70          #include "OnBoard.h"
     71          
     72          /* HAL */
     73          #include "hal_lcd.h"
     74          #include "hal_led.h"
     75          #include "hal_key.h"
     76          #include "MT_UART.h"
     77          #include "MT_APP.h"
     78          #include "MT.h"
     79          #include "hal_lcd.h"
     80          
     81          /*********************************************************************
     82           * MACROS
     83           */
     84          
     85          /*********************************************************************
     86           * CONSTANTS
     87           */
     88          
     89          /*********************************************************************
     90           * TYPEDEFS
     91           */
     92          
     93          /*********************************************************************
     94           * GLOBAL VARIABLES
     95           */
     96          
     97          // This list should be filled with Application specific Cluster IDs.

   \                                 In  segment XDATA_ROM_C, align 1
     98          const cId_t SampleApp_ClusterList[SAMPLEAPP_MAX_CLUSTERS] =
   \                     SampleApp_ClusterList:
   \   000000   0100         DW 1
   \   000002   0200         DW 2
   \   000004   0300         DW 3
     99          {
    100              SAMPLEAPP_PERIODIC_CLUSTERID,
    101              SAMPLEAPP_FLASH_CLUSTERID,
    102              SAMPLEAPP_P2P_CLUSTERID
    103          };
    104          

   \                                 In  segment XDATA_ROM_C, align 1
    105          const SimpleDescriptionFormat_t SampleApp_SimpleDesc =
   \                     SampleApp_SimpleDesc:
   \   000000   14           DB 20
   \   000001   080F         DW 3848
   \   000003   0100         DW 1
   \   000005   00           DB 0
   \   000006   03           DB 3
   \   000007   ....         DW SampleApp_ClusterList
   \   000009   03           DB 3
   \   00000A   ....         DW SampleApp_ClusterList
    106          {
    107              SAMPLEAPP_ENDPOINT,              //  int Endpoint;
    108              SAMPLEAPP_PROFID,                //  uint16 AppProfId[2];
    109              SAMPLEAPP_DEVICEID,              //  uint16 AppDeviceId[2];
    110              SAMPLEAPP_DEVICE_VERSION,        //  int   AppDevVer:4;
    111              SAMPLEAPP_FLAGS,                 //  int   AppFlags:4;
    112              SAMPLEAPP_MAX_CLUSTERS,          //  uint8  AppNumInClusters;
    113              (cId_t *)SampleApp_ClusterList,  //  uint8 *pAppInClusterList;
    114              SAMPLEAPP_MAX_CLUSTERS,          //  uint8  AppNumInClusters;
    115              (cId_t *)SampleApp_ClusterList   //  uint8 *pAppInClusterList;
    116          };
    117          
    118          // This is the Endpoint/Interface description.  It is defined here, but
    119          // filled-in in SampleApp_Init().  Another way to go would be to fill
    120          // in the structure here and make it a "const" (in code space).  The
    121          // way it's defined in this sample app it is define in RAM.

   \                                 In  segment XDATA_Z, align 1, keep-with-next
    122          endPointDesc_t SampleApp_epDesc;
   \                     SampleApp_epDesc:
   \   000000                DS 6
   \   000006                REQUIRE __INIT_XDATA_Z
    123          
    124          /*********************************************************************
    125           * EXTERNAL VARIABLES
    126           */
    127          
    128          /*********************************************************************
    129           * EXTERNAL FUNCTIONS
    130           */
    131          
    132          /*********************************************************************
    133           * LOCAL VARIABLES
    134           */

   \                                 In  segment XDATA_Z, align 1, keep-with-next
    135          uint8 SampleApp_TaskID;   // Task ID for internal task/event processing
   \                     SampleApp_TaskID:
   \   000000                DS 1
   \   000001                REQUIRE __INIT_XDATA_Z
    136                                    // This variable will be received when
    137                                    // SampleApp_Init() is called.

   \                                 In  segment XDATA_Z, align 1, keep-with-next
    138          devStates_t SampleApp_NwkState;
   \                     SampleApp_NwkState:
   \   000000                DS 1
   \   000001                REQUIRE __INIT_XDATA_Z
    139          

   \                                 In  segment XDATA_Z, align 1, keep-with-next
    140          uint8 SampleApp_TransID;  // This is the unique message ID (counter)
   \                     SampleApp_TransID:
   \   000000                DS 1
   \   000001                REQUIRE __INIT_XDATA_Z
    141          

   \                                 In  segment XDATA_Z, align 1, keep-with-next
    142          afAddrType_t SampleApp_Periodic_DstAddr; //广播
   \                     SampleApp_Periodic_DstAddr:
   \   000000                DS 12
   \   00000C                REQUIRE __INIT_XDATA_Z

   \                                 In  segment XDATA_Z, align 1, keep-with-next
    143          afAddrType_t SampleApp_Flash_DstAddr;    //组播
   \                     SampleApp_Flash_DstAddr:
   \   000000                DS 12
   \   00000C                REQUIRE __INIT_XDATA_Z

   \                                 In  segment XDATA_Z, align 1, keep-with-next
    144          afAddrType_t SampleApp_P2P_DstAddr;      //点播
   \                     SampleApp_P2P_DstAddr:
   \   000000                DS 12
   \   00000C                REQUIRE __INIT_XDATA_Z
    145          

   \                                 In  segment XDATA_Z, align 1, keep-with-next
    146          aps_Group_t SampleApp_Group;
   \                     SampleApp_Group:
   \   000000                DS 18
   \   000012                REQUIRE __INIT_XDATA_Z
    147          

   \                                 In  segment XDATA_Z, align 1, keep-with-next
    148          uint8 SampleAppPeriodicCounter = 0;
   \                     SampleAppPeriodicCounter:
   \   000000                DS 1
   \   000001                REQUIRE __INIT_XDATA_Z

   \                                 In  segment XDATA_Z, align 1, keep-with-next
    149          uint8 SampleAppFlashCounter = 0;
   \                     SampleAppFlashCounter:
   \   000000                DS 1
   \   000001                REQUIRE __INIT_XDATA_Z
    150          
    151          //应用层变量

   \                                 In  segment XDATA_Z, align 1, keep-with-next
    152          endDevMsg_t localEndDevMsg;
   \                     localEndDevMsg:
   \   000000                DS 13
   \   00000D                REQUIRE __INIT_XDATA_Z

   \                                 In  segment XDATA_Z, align 1, keep-with-next
    153          appMsg_t    localAppMsg;
   \                     localAppMsg:
   \   000000                DS 14
   \   00000E                REQUIRE __INIT_XDATA_Z

   \                                 In  segment XDATA_Z, align 1, keep-with-next
    154          uint8 SampleAppAckEvent = NOT_EXIST;
   \                     SampleAppAckEvent:
   \   000000                DS 1
   \   000001                REQUIRE __INIT_XDATA_Z
    155          
    156          
    157          /*********************************************************************
    158           * LOCAL FUNCTIONS
    159           */
    160          void SampleApp_HandleKeys( uint8 shift, uint8 keys );
    161          void SampleApp_MessageMSGCB( afIncomingMSGPacket_t *pckt );
    162          void SampleApp_SendPeriodicMessage( void );
    163          void SampleApp_SendFlashMessage( uint16 flashTime );
    164          void SampleApp_Send_P2P_Message(void);
    165          void SampleApp_GetShortAddrStr(uint8* addrCA);
    166          uint8 _SampleApp_CharToHex(uint8 ch);
    167          uint16 SampleApp_GetShortAddrUint16(uint8* addrCA);
    168          void SampleApp_Uint16ToStr(uint16 guid, uint8* guid_str);
    169          
    170          #if ( ZSTACK_DEVICE_BUILD == DEVICE_BUILD_COORDINATOR )	//协调器
    171          //串口处理函数
    172          void SampleApp_ProcessUartData(mtOSALSerialData_t *MSGpkt); 
    173          //通过无线发送数据到终端设备
    174          void SampleApp_Send_C2E_Message( uint8* msg );              
    175          #endif //协调器
    176          
    177          #if ( ZSTACK_DEVICE_BUILD == DEVICE_BUILD_ENDDEVICE )	//终端设备
    178          void SampleApp_GetGUIDStr(uint8* str);
    179          // 终端设备给协调器回复
    180          void SampleApp_Send_E2C_Ack( uint8* value, uint8 length );
    181          // 终端设备主动发送PushButton事件
    182          void SampleApp_Send_E2C_PushBtn_Evt( uint8 evt );
    183          #endif  //终端设备
    184          
    185          /*********************************************************************
    186           * NETWORK LAYER CALLBACKS
    187           */
    188          
    189          /*********************************************************************
    190           * PUBLIC FUNCTIONS
    191           */
    192          
    193          /*********************************************************************
    194           * @fn      SampleApp_Init
    195           *
    196           * @brief   Initialization function for the Generic App Task.
    197           *          This is called during initialization and should contain
    198           *          any application specific initialization (ie. hardware
    199           *          initialization/setup, table initialization, power up
    200           *          notificaiton ... ).
    201           *
    202           * @param   task_id - the ID assigned by OSAL.  This ID should be
    203           *                    used to send messages and set timers.
    204           *
    205           * @return  none
    206           */

   \                                 In  segment BANKED_CODE, align 1, keep-with-next
    207          void SampleApp_Init( uint8 task_id )
   \                     SampleApp_Init:
    208          { 
   \   000000   74F5         MOV     A,#-0xb
   \   000002   12....       LCALL   ?BANKED_ENTER_XDATA
   \   000005                ; Saved register size: 11
   \   000005                ; Auto size: 9
   \   000005   74F7         MOV     A,#-0x9
   \   000007   12....       LCALL   ?ALLOC_XSTACK8
   \   00000A   E9           MOV     A,R1
   \   00000B   FE           MOV     R6,A
    209              uint16 _guid = GUID;
    210              uint8  _guid_str[9];
    211              SampleApp_TaskID = task_id;
   \   00000C   90....       MOV     DPTR,#SampleApp_TaskID
   \   00000F   F0           MOVX    @DPTR,A
    212              SampleApp_NwkState = DEV_INIT;
   \   000010   90....       MOV     DPTR,#SampleApp_NwkState
   \   000013   7401         MOV     A,#0x1
   \   000015   F0           MOVX    @DPTR,A
    213              SampleApp_TransID = 0;
   \   000016   90....       MOV     DPTR,#SampleApp_TransID
   \   000019   E4           CLR     A
   \   00001A   F0           MOVX    @DPTR,A
    214            
    215              MT_UartInit();                  //串口初始化
   \   00001B                ; Setup parameters for call to function MT_UartInit
   \   00001B   12....       LCALL   ??MT_UartInit?relay
    216              MT_UartRegisterTaskID(task_id); //注册串口任务
   \   00001E                ; Setup parameters for call to function MT_UartRegisterTaskID
   \   00001E   EE           MOV     A,R6
   \   00001F   F9           MOV     R1,A
   \   000020   12....       LCALL   ??MT_UartRegisterTaskID?relay
    217            
    218              // Device hardware initialization can be added here or in main() (Zmain.c).
    219              // If the hardware is application specific - add it here.
    220              // If the hardware is other parts of the device add it in main().
    221          
    222          #if defined ( BUILD_ALL_DEVICES )
    223              // The "Demo" target is setup to have BUILD_ALL_DEVICES and HOLD_AUTO_START
    224              // We are looking at a jumper (defined in SampleAppHw.c) to be jumpered
    225              // together - if they are - we will start up a coordinator. Otherwise,
    226              // the device will start as a router.
    227              if ( readCoordinatorJumper() )
    228                  zgDeviceLogicalType = ZG_DEVICETYPE_COORDINATOR;
    229              else
    230                  zgDeviceLogicalType = ZG_DEVICETYPE_ROUTER;
    231          #endif // BUILD_ALL_DEVICES
    232          
    233          #if defined ( HOLD_AUTO_START )
    234              // HOLD_AUTO_START is a compile option that will surpress ZDApp
    235              //  from starting the device and wait for the application to
    236              //  start the device.
    237              ZDOInitDevice(0);
    238          #endif
    239          
    240              // Setup for the periodic message's destination address
    241              // Broadcast to everyone
    242              SampleApp_Periodic_DstAddr.addrMode = (afAddrMode_t)AddrBroadcast;//广播
   \   000023   90....       MOV     DPTR,#SampleApp_Periodic_DstAddr + 8
   \   000026   740F         MOV     A,#0xf
   \   000028   F0           MOVX    @DPTR,A
    243              SampleApp_Periodic_DstAddr.endPoint = SAMPLEAPP_ENDPOINT;
   \   000029   A3           INC     DPTR
   \   00002A   7414         MOV     A,#0x14
   \   00002C   F0           MOVX    @DPTR,A
    244              SampleApp_Periodic_DstAddr.addr.shortAddr = 0xFFFF;
   \   00002D   90....       MOV     DPTR,#SampleApp_Periodic_DstAddr
   \   000030   74FF         MOV     A,#-0x1
   \   000032   F0           MOVX    @DPTR,A
   \   000033   A3           INC     DPTR
   \   000034   F0           MOVX    @DPTR,A
    245          
    246              // Setup for the flash command's destination address - Group 1
    247              SampleApp_Flash_DstAddr.addrMode = (afAddrMode_t)afAddrGroup;//组播
   \   000035   90....       MOV     DPTR,#SampleApp_Flash_DstAddr + 8
   \   000038   7401         MOV     A,#0x1
   \   00003A   F0           MOVX    @DPTR,A
    248              SampleApp_Flash_DstAddr.endPoint = SAMPLEAPP_ENDPOINT;
   \   00003B   A3           INC     DPTR
   \   00003C   7414         MOV     A,#0x14
   \   00003E   F0           MOVX    @DPTR,A
    249              SampleApp_Flash_DstAddr.addr.shortAddr = SAMPLEAPP_FLASH_GROUP;
   \   00003F   90....       MOV     DPTR,#SampleApp_Flash_DstAddr
   \   000042   7401         MOV     A,#0x1
   \   000044   F0           MOVX    @DPTR,A
   \   000045   A3           INC     DPTR
   \   000046   E4           CLR     A
   \   000047   F0           MOVX    @DPTR,A
    250            
    251              SampleApp_P2P_DstAddr.addrMode = (afAddrMode_t)Addr16Bit; //点播 
   \   000048   90....       MOV     DPTR,#SampleApp_P2P_DstAddr + 8
   \   00004B   7402         MOV     A,#0x2
   \   00004D   F0           MOVX    @DPTR,A
    252              SampleApp_P2P_DstAddr.endPoint = SAMPLEAPP_ENDPOINT; 
   \   00004E   A3           INC     DPTR
   \   00004F   7414         MOV     A,#0x14
   \   000051   F0           MOVX    @DPTR,A
    253          
    254          #if 0
    255          #if ( ZSTACK_DEVICE_BUILD == DEVICE_BUILD_COORDINATOR )	//如果是协调器
    256              SampleApp_P2P_DstAddr.addr.shortAddr = 0x0001;            //发给终端设备
    257          #else
    258              SampleApp_P2P_DstAddr.addr.shortAddr = 0x0000;            //发给协调器
    259          #endif
    260          #endif // 0
    261          
    262              // Fill out the endpoint description.
    263              SampleApp_epDesc.endPoint = SAMPLEAPP_ENDPOINT;
   \   000052   90....       MOV     DPTR,#SampleApp_epDesc
   \   000055   F0           MOVX    @DPTR,A
    264              SampleApp_epDesc.task_id = &SampleApp_TaskID;
   \   000056   A3           INC     DPTR
   \   000057   74..         MOV     A,#SampleApp_TaskID & 0xff
   \   000059   F0           MOVX    @DPTR,A
   \   00005A   A3           INC     DPTR
   \   00005B   74..         MOV     A,#(SampleApp_TaskID >> 8) & 0xff
   \   00005D   F0           MOVX    @DPTR,A
    265              SampleApp_epDesc.simpleDesc
    266                      = (SimpleDescriptionFormat_t *)&SampleApp_SimpleDesc;
   \   00005E   A3           INC     DPTR
   \   00005F   74..         MOV     A,#SampleApp_SimpleDesc & 0xff
   \   000061   F0           MOVX    @DPTR,A
   \   000062   A3           INC     DPTR
   \   000063   74..         MOV     A,#(SampleApp_SimpleDesc >> 8) & 0xff
   \   000065   F0           MOVX    @DPTR,A
    267              SampleApp_epDesc.latencyReq = noLatencyReqs;
   \   000066   A3           INC     DPTR
   \   000067   E4           CLR     A
   \   000068   F0           MOVX    @DPTR,A
    268          
    269              // Register the endpoint description with the AF
    270              afRegister( &SampleApp_epDesc );
   \   000069                ; Setup parameters for call to function afRegister
   \   000069   7A..         MOV     R2,#SampleApp_epDesc & 0xff
   \   00006B   7B..         MOV     R3,#(SampleApp_epDesc >> 8) & 0xff
   \   00006D   12....       LCALL   ??afRegister?relay
    271          
    272              // Register for all key events - This app will handle all key events
    273              RegisterForKeys( SampleApp_TaskID );
   \   000070                ; Setup parameters for call to function RegisterForKeys
   \   000070   90....       MOV     DPTR,#SampleApp_TaskID
   \   000073   E0           MOVX    A,@DPTR
   \   000074   F9           MOV     R1,A
   \   000075   12....       LCALL   ??RegisterForKeys?relay
    274          
    275              // By default, all devices start out in Group 1
    276              SampleApp_Group.ID = 0x0001;
   \   000078   90....       MOV     DPTR,#SampleApp_Group
   \   00007B   7401         MOV     A,#0x1
   \   00007D   F0           MOVX    @DPTR,A
   \   00007E   A3           INC     DPTR
   \   00007F   E4           CLR     A
   \   000080   F0           MOVX    @DPTR,A
    277              osal_memcpy( SampleApp_Group.name, "Group 1", 7  );
   \   000081                ; Setup parameters for call to function osal_memcpy
   \   000081   75....       MOV     ?V0 + 0,#`?<Constant "Group 1">` & 0xff
   \   000084   75....       MOV     ?V0 + 1,#(`?<Constant "Group 1">` >> 8) & 0xff
   \   000087   F5..         MOV     ?V0 + 2,A
   \   000089   78..         MOV     R0,#?V0 + 0
   \   00008B   12....       LCALL   ?PUSH_XSTACK_I_THREE
   \   00008E   7C07         MOV     R4,#0x7
   \   000090   7D00         MOV     R5,#0x0
   \   000092   7A..         MOV     R2,#(SampleApp_Group + 2) & 0xff
   \   000094   7B..         MOV     R3,#((SampleApp_Group + 2) >> 8) & 0xff
   \   000096   12....       LCALL   ??osal_memcpy?relay
   \   000099   7403         MOV     A,#0x3
   \   00009B   12....       LCALL   ?DEALLOC_XSTACK8
    278              aps_AddGroup( SAMPLEAPP_ENDPOINT, &SampleApp_Group );
   \   00009E                ; Setup parameters for call to function aps_AddGroup
   \   00009E   7A..         MOV     R2,#SampleApp_Group & 0xff
   \   0000A0   7B..         MOV     R3,#(SampleApp_Group >> 8) & 0xff
   \   0000A2   7914         MOV     R1,#0x14
   \   0000A4   12....       LCALL   ??aps_AddGroup?relay
    279          
    280          #if defined ( LCD_SUPPORTED )
    281              HalLcdWriteString( "SampleApp", HAL_LCD_LINE_1 );
   \   0000A7                ; Setup parameters for call to function HalLcdWriteString
   \   0000A7   7901         MOV     R1,#0x1
   \   0000A9   7A..         MOV     R2,#`?<Constant "SampleApp">` & 0xff
   \   0000AB   7B..         MOV     R3,#(`?<Constant "SampleApp">` >> 8) & 0xff
   \   0000AD   12....       LCALL   ??HalLcdWriteString?relay
    282              _guid_str[0] = 'G';
   \   0000B0   85..82       MOV     DPL,?XSP + 0
   \   0000B3   85..83       MOV     DPH,?XSP + 1
   \   0000B6   7447         MOV     A,#0x47
   \   0000B8   F0           MOVX    @DPTR,A
    283              _guid_str[1] = 'u';
   \   0000B9   7401         MOV     A,#0x1
   \   0000BB   12....       LCALL   ?XSTACK_DISP0_8
   \   0000BE   7475         MOV     A,#0x75
   \   0000C0   F0           MOVX    @DPTR,A
    284              _guid_str[2] = 'i';
   \   0000C1   7402         MOV     A,#0x2
   \   0000C3   12....       LCALL   ?XSTACK_DISP0_8
   \   0000C6   7469         MOV     A,#0x69
   \   0000C8   F0           MOVX    @DPTR,A
    285              _guid_str[3] = 'd';
   \   0000C9   7403         MOV     A,#0x3
   \   0000CB   12....       LCALL   ?XSTACK_DISP0_8
   \   0000CE   7464         MOV     A,#0x64
   \   0000D0   F0           MOVX    @DPTR,A
    286              _guid_str[4] = ':';
   \   0000D1   7404         MOV     A,#0x4
   \   0000D3   12....       LCALL   ?XSTACK_DISP0_8
   \   0000D6   743A         MOV     A,#0x3a
   \   0000D8   F0           MOVX    @DPTR,A
    287              SampleApp_Uint16ToStr(_guid,&_guid_str[5]);
   \   0000D9                ; Setup parameters for call to function SampleApp_Uint16ToStr
   \   0000D9   7405         MOV     A,#0x5
   \   0000DB   12....       LCALL   ?XSTACK_DISP0_8
   \   0000DE   AC82         MOV     R4,DPL
   \   0000E0   AD83         MOV     R5,DPH
   \   0000E2   7A00         MOV     R2,#0x0
   \   0000E4   7B00         MOV     R3,#0x0
   \   0000E6   12....       LCALL   ??SampleApp_Uint16ToStr?relay
    288              HalLcdWriteString( (char*)_guid_str, HAL_LCD_LINE_4 );
   \   0000E9                ; Setup parameters for call to function HalLcdWriteString
   \   0000E9   7904         MOV     R1,#0x4
   \   0000EB   85..82       MOV     DPL,?XSP + 0
   \   0000EE   85..83       MOV     DPH,?XSP + 1
   \   0000F1   AA82         MOV     R2,DPL
   \   0000F3   AB83         MOV     R3,DPH
   \   0000F5   12....       LCALL   ??HalLcdWriteString?relay
    289          #endif
    290          }
   \   0000F8   7409         MOV     A,#0x9
   \   0000FA   12....       LCALL   ?DEALLOC_XSTACK8
   \   0000FD   7F03         MOV     R7,#0x3
   \   0000FF   02....       LJMP    ?BANKED_LEAVE_XDATA
    291          
    292          /*********************************************************************
    293           * @fn      SampleApp_ProcessEvent
    294           *
    295           * @brief   Generic Application Task event processor.  This function
    296           *          is called to process all events for the task.  Events
    297           *          include timers, messages and any other user defined events.
    298           *
    299           * @param   task_id  - The OSAL assigned task ID.
    300           * @param   events - events to process.  This is a bit map and can
    301           *                   contain more than one event.
    302           *
    303           * @return  none
    304           */

   \                                 In  segment BANKED_CODE, align 1, keep-with-next
    305          uint16 SampleApp_ProcessEvent( uint8 task_id, uint16 events )
   \                     SampleApp_ProcessEvent:
    306          {
   \   000000   74F4         MOV     A,#-0xc
   \   000002   12....       LCALL   ?BANKED_ENTER_XDATA
   \   000005                ; Saved register size: 12
   \   000005                ; Auto size: 0
   \   000005   EA           MOV     A,R2
   \   000006   FE           MOV     R6,A
   \   000007   EB           MOV     A,R3
   \   000008   FF           MOV     R7,A
    307              afIncomingMSGPacket_t *MSGpkt;
    308              (void)task_id;  // Intentionally unreferenced parameter
    309          
    310              if ( events & SYS_EVENT_MSG )
   \   000009   5480         ANL     A,#0x80
   \   00000B   607B         JZ      ??SampleApp_ProcessEvent_0
    311              {
    312                  MSGpkt = (afIncomingMSGPacket_t *)osal_msg_receive( SampleApp_TaskID );
   \   00000D                ; Setup parameters for call to function osal_msg_receive
   \   00000D   800E         SJMP    ??SampleApp_ProcessEvent_1
    313                  while ( MSGpkt )
    314                  {
    315                      switch ( MSGpkt->hdr.event )
    316                      {
    317                          // Received when a key is pressed
    318                          case KEY_CHANGE:
    319                              SampleApp_HandleKeys( ((keyChange_t *)MSGpkt)->state, ((keyChange_t *)MSGpkt)->keys );
    320                              break;
    321          
    322                          // Received when a messages is received (OTA) for this endpoint
    323                          case AF_INCOMING_MSG_CMD:
    324                              SampleApp_MessageMSGCB( MSGpkt );
    325                              break;
    326          
    327                          // Received whenever the device changes state in the network
    328                          case ZDO_STATE_CHANGE:
    329                              SampleApp_NwkState = (devStates_t)(MSGpkt->hdr.status);
    330                              if ( //(SampleApp_NwkState == DEV_ZB_COORD) ||
    331                                   //(SampleApp_NwkState == DEV_ROUTER)   || 
    332          			 (SampleApp_NwkState == DEV_END_DEVICE) )
    333                              {
    334                                  // Start sending the periodic message in a regular interval.
    335                                  osal_start_timerEx( SampleApp_TaskID,
    336                                        SAMPLEAPP_SEND_PERIODIC_MSG_EVT,
    337                                        SAMPLEAPP_SEND_PERIODIC_MSG_TIMEOUT );
    338                              }
    339                              else
    340                              {
    341                                  // Device is no longer in the network
    342                              }
    343                              break;
    344          #if ( ZSTACK_DEVICE_BUILD == DEVICE_BUILD_COORDINATOR )	//协调器
    345                          case CMD_SERIAL_MSG:
    346          #ifdef ZS_DEBUG_UART
    347                              HalUARTWrite(0,"CMD_SERIAL_MSG\n", sizeof("CMD_SERIAL_MSG\n"));
    348          #endif
    349                              SampleApp_ProcessUartData((mtOSALSerialData_t *)MSGpkt);
   \                     ??SampleApp_ProcessEvent_2:
   \   00000F                ; Setup parameters for call to function SampleApp_ProcessUartData
   \   00000F   AA..         MOV     R2,?V0 + 0
   \   000011   AB..         MOV     R3,?V0 + 1
   \   000013   12....       LCALL   ??SampleApp_ProcessUartData?relay
    350                              break;
    351          #endif
    352                          default:
    353                              break;
    354                      }
    355          
    356                      // Release the memory
    357                      osal_msg_deallocate( (uint8 *)MSGpkt );
   \                     ??SampleApp_ProcessEvent_3:
   \   000016                ; Setup parameters for call to function osal_msg_deallocate
   \   000016   AA..         MOV     R2,?V0 + 0
   \   000018   AB..         MOV     R3,?V0 + 1
   \   00001A   12....       LCALL   ??osal_msg_deallocate?relay
    358          
    359                      // Next - if one is available
    360                      MSGpkt = (afIncomingMSGPacket_t *)osal_msg_receive( SampleApp_TaskID );
   \   00001D                ; Setup parameters for call to function osal_msg_receive
   \                     ??SampleApp_ProcessEvent_1:
   \   00001D   90....       MOV     DPTR,#SampleApp_TaskID
   \   000020   E0           MOVX    A,@DPTR
   \   000021   F9           MOV     R1,A
   \   000022   12....       LCALL   ??osal_msg_receive?relay
   \   000025   8A..         MOV     ?V0 + 0,R2
   \   000027   8B..         MOV     ?V0 + 1,R3
   \   000029   E5..         MOV     A,?V0 + 0
   \   00002B   45..         ORL     A,?V0 + 1
   \   00002D   6051         JZ      ??SampleApp_ProcessEvent_4
   \   00002F   85..82       MOV     DPL,?V0 + 0
   \   000032   85..83       MOV     DPH,?V0 + 1
   \   000035   E0           MOVX    A,@DPTR
   \   000036   14           DEC     A
   \   000037   60D6         JZ      ??SampleApp_ProcessEvent_2
   \   000039   24E7         ADD     A,#-0x19
   \   00003B   601E         JZ      ??SampleApp_ProcessEvent_5
   \   00003D   245A         ADD     A,#0x5a
   \   00003F   6006         JZ      ??SampleApp_ProcessEvent_6
   \   000041   24EF         ADD     A,#-0x11
   \   000043   601F         JZ      ??SampleApp_ProcessEvent_7
   \   000045   80CF         SJMP    ??SampleApp_ProcessEvent_3
   \                     ??SampleApp_ProcessEvent_6:
   \   000047                ; Setup parameters for call to function SampleApp_HandleKeys
   \   000047   A3           INC     DPTR
   \   000048   A3           INC     DPTR
   \   000049   A3           INC     DPTR
   \   00004A   E0           MOVX    A,@DPTR
   \   00004B   FA           MOV     R2,A
   \   00004C   85..82       MOV     DPL,?V0 + 0
   \   00004F   85..83       MOV     DPH,?V0 + 1
   \   000052   A3           INC     DPTR
   \   000053   A3           INC     DPTR
   \   000054   E0           MOVX    A,@DPTR
   \   000055   F9           MOV     R1,A
   \   000056   12....       LCALL   ??SampleApp_HandleKeys?relay
   \   000059   80BB         SJMP    ??SampleApp_ProcessEvent_3
   \                     ??SampleApp_ProcessEvent_5:
   \   00005B                ; Setup parameters for call to function SampleApp_MessageMSGCB
   \   00005B   AA..         MOV     R2,?V0 + 0
   \   00005D   AB..         MOV     R3,?V0 + 1
   \   00005F   12....       LCALL   ??SampleApp_MessageMSGCB?relay
   \   000062   80B2         SJMP    ??SampleApp_ProcessEvent_3
   \                     ??SampleApp_ProcessEvent_7:
   \   000064   A3           INC     DPTR
   \   000065   E0           MOVX    A,@DPTR
   \   000066   90....       MOV     DPTR,#SampleApp_NwkState
   \   000069   F0           MOVX    @DPTR,A
   \   00006A   6406         XRL     A,#0x6
   \   00006C   70A8         JNZ     ??SampleApp_ProcessEvent_3
   \   00006E                ; Setup parameters for call to function osal_start_timerEx
   \   00006E   7C10         MOV     R4,#0x10
   \   000070   7D27         MOV     R5,#0x27
   \   000072   7A01         MOV     R2,#0x1
   \   000074   7B00         MOV     R3,#0x0
   \   000076   90....       MOV     DPTR,#SampleApp_TaskID
   \   000079   E0           MOVX    A,@DPTR
   \   00007A   F9           MOV     R1,A
   \   00007B   12....       LCALL   ??osal_start_timerEx?relay
   \   00007E   8096         SJMP    ??SampleApp_ProcessEvent_3
    361                  }
    362          
    363                  // return unprocessed events
    364                  return (events ^ SYS_EVENT_MSG);
   \                     ??SampleApp_ProcessEvent_4:
   \   000080   EE           MOV     A,R6
   \   000081   FA           MOV     R2,A
   \   000082   EF           MOV     A,R7
   \   000083   6480         XRL     A,#0x80
   \                     ??SampleApp_ProcessEvent_8:
   \   000085   FB           MOV     R3,A
   \   000086   8036         SJMP    ??SampleApp_ProcessEvent_9
    365              }
    366          
    367              // Send a message out - This event is generated by a timer
    368              //  (setup in SampleApp_Init()).
    369              if ( events & SAMPLEAPP_SEND_PERIODIC_MSG_EVT )
   \                     ??SampleApp_ProcessEvent_0:
   \   000088   EE           MOV     A,R6
   \   000089   A2E0         MOV     C,0xE0 /* A   */.0
   \   00008B   5021         JNC     ??SampleApp_ProcessEvent_10
    370              {
    371                  // Send the periodic message
    372                  //SampleApp_SendPeriodicMessage();
    373                  SampleApp_Send_P2P_Message();
   \   00008D                ; Setup parameters for call to function SampleApp_Send_P2P_Message
   \   00008D   12....       LCALL   ??SampleApp_Send_P2P_Message?relay
    374          
    375                  // Setup to send message again in normal period (+ a little jitter)
    376                  osal_start_timerEx( SampleApp_TaskID, SAMPLEAPP_SEND_PERIODIC_MSG_EVT,
    377                      (SAMPLEAPP_SEND_PERIODIC_MSG_TIMEOUT + (osal_rand() & 0x00FF)) );
   \   000090                ; Setup parameters for call to function osal_rand
   \   000090   12....       LCALL   ??osal_rand?relay
   \   000093                ; Setup parameters for call to function osal_start_timerEx
   \   000093   EA           MOV     A,R2
   \   000094   2410         ADD     A,#0x10
   \   000096   FC           MOV     R4,A
   \   000097   E4           CLR     A
   \   000098   3427         ADDC    A,#0x27
   \   00009A   FD           MOV     R5,A
   \   00009B   7A01         MOV     R2,#0x1
   \   00009D   7B00         MOV     R3,#0x0
   \   00009F   90....       MOV     DPTR,#SampleApp_TaskID
   \   0000A2   E0           MOVX    A,@DPTR
   \   0000A3   F9           MOV     R1,A
   \   0000A4   12....       LCALL   ??osal_start_timerEx?relay
    378          
    379                  // return unprocessed events
    380                  return (events ^ SAMPLEAPP_SEND_PERIODIC_MSG_EVT);
   \   0000A7   EE           MOV     A,R6
   \   0000A8   6401         XRL     A,#0x1
   \                     ??SampleApp_ProcessEvent_11:
   \   0000AA   FA           MOV     R2,A
   \   0000AB   EF           MOV     A,R7
   \   0000AC   80D7         SJMP    ??SampleApp_ProcessEvent_8
    381              }
    382              if( events & SAMPLEAPP_SEND_RESPONSE_MSG_EVT )
   \                     ??SampleApp_ProcessEvent_10:
   \   0000AE   5402         ANL     A,#0x2
   \   0000B0   6008         JZ      ??SampleApp_ProcessEvent_12
    383              {
    384                  SampleApp_Send_P2P_Message();
   \   0000B2                ; Setup parameters for call to function SampleApp_Send_P2P_Message
   \   0000B2   12....       LCALL   ??SampleApp_Send_P2P_Message?relay
    385          	return (events ^ SAMPLEAPP_SEND_RESPONSE_MSG_EVT);
   \   0000B5   EE           MOV     A,R6
   \   0000B6   6402         XRL     A,#0x2
   \   0000B8   80F0         SJMP    ??SampleApp_ProcessEvent_11
    386              }
    387          #if ( ZSTACK_DEVICE_BUILD == DEVICE_BUILD_ENDDEVICE )	//终端设备
    388              //触发按键确认事件
    389              if( events & SAMPLEAPP_KEY_ACK_EVT )
    390              {
    391          #if 1 //调试-确认事件触发
    392                  HalUARTWrite(0x00, "SAMPLEAPP_KEY_ACK_EVT\n", 22);       
    393          #endif
    394                  //HalLcdInit();
    395                  //1 判断是否存在确认事件
    396                  if( SampleAppAckEvent != NOT_EXIST )
    397                  {
    398                      //2 根据localEndDevMsg中的内容发送确认事件
    399                      if( 0x00 == SampleUtil_CompareUint8Array(localEndDevMsg.command,"TKME",4) )
    400                      {
    401                          // Take Medicines
    402                          SampleApp_Send_E2C_PushBtn_Evt(SampleAppAckEvent);
    403                      }
    404                      else if( 0x00 == SampleUtil_CompareUint8Array(localEndDevMsg.command,"ADME",4) )
    405                      {
    406                          // Add Medicines
    407                          SampleApp_Send_E2C_PushBtn_Evt(SampleAppAckEvent);
    408                      }
    409                  }
    410                  return ( events ^ SAMPLEAPP_KEY_ACK_EVT );
    411              }
    412              //触发按键查询事件
    413              if( events & SAMPLEAPP_KEY_QUERY_EVT )
    414              {
    415          #if 1 //查询事件触发调试
    416                  HalUARTWrite(0x00, "SAMPLEAPP_KEY_QUERY_EVT\n", 24);       
    417          #endif
    418                  //1 判断是否存在确认事件
    419                  if( SampleAppAckEvent == NOT_EXIST )
    420                  {
    421                      // Query Medicines
    422                      SampleApp_Send_E2C_PushBtn_Evt(QUERY_MEDIC_EVT);
    423                  }
    424                  return ( events ^ SAMPLEAPP_KEY_QUERY_EVT );
    425              }
    426          #endif  //终端设备
    427              // Discard unknown events
    428              return 0;
   \                     ??SampleApp_ProcessEvent_12:
   \   0000BA   7A00         MOV     R2,#0x0
   \   0000BC   7B00         MOV     R3,#0x0
   \                     ??SampleApp_ProcessEvent_9:
   \   0000BE                REQUIRE ?Subroutine0
   \   0000BE                ; // Fall through to label ?Subroutine0
    429          }

   \                                 In  segment BANKED_CODE, align 1, keep-with-next
   \                     ?Subroutine0:
   \   000000   7F04         MOV     R7,#0x4
   \   000002   02....       LJMP    ?BANKED_LEAVE_XDATA
    430          
    431          /*********************************************************************
    432           * Event Generation Functions
    433           */
    434          /*********************************************************************
    435           * @fn      SampleApp_HandleKeys
    436           *
    437           * @brief   Handles all key events for this device.
    438           *
    439           * @param   shift - true if in shift/alt.
    440           * @param   keys - bit field for key events. Valid entries:
    441           *                 HAL_KEY_SW_2
    442           *                 HAL_KEY_SW_1
    443           *
    444           * @return  none
    445           */

   \                                 In  segment BANKED_CODE, align 1, keep-with-next
    446          void SampleApp_HandleKeys( uint8 shift, uint8 keys )
   \                     SampleApp_HandleKeys:
    447          {
   \   000000   74F7         MOV     A,#-0x9
   \   000002   12....       LCALL   ?BANKED_ENTER_XDATA
   \   000005                ; Saved register size: 9
   \   000005                ; Auto size: 0
   \   000005   EA           MOV     A,R2
   \   000006   FE           MOV     R6,A
    448          #if 0
    449              uint8 str4lcd[6];
    450          #endif
    451              (void)shift;  // Intentionally unreferenced parameter
    452            
    453              if ( keys & HAL_KEY_SW_1 )
   \   000007   A2E0         MOV     C,0xE0 /* A   */.0
   \   000009   500D         JNC     ??SampleApp_HandleKeys_0
    454              {
    455                  /* This key sends the Flash Command is sent to Group 1.
    456                   * This device will not receive the Flash Command from this
    457                   * device (even if it belongs to group 1).
    458                   */
    459                  //SampleApp_SendFlashMessage( SAMPLEAPP_FLASH_DURATION );
    460                  //替换成我的程序，进行按键处理
    461                  HalUARTWrite(0x00, "HAL_KEY_SW_1\n", 13);       //按键1触发调试
   \   00000B                ; Setup parameters for call to function HalUARTWrite
   \   00000B   7C0D         MOV     R4,#0xd
   \   00000D   7D00         MOV     R5,#0x0
   \   00000F   7A..         MOV     R2,#`?<Constant "HAL_KEY_SW_1\\n">` & 0xff
   \   000011   7B..         MOV     R3,#(`?<Constant "HAL_KEY_SW_1\\n">` >> 8) & 0xff
   \   000013   7900         MOV     R1,#0x0
   \   000015   12....       LCALL   ??HalUARTWrite?relay
    462          #if ( ZSTACK_DEVICE_BUILD == DEVICE_BUILD_COORDINATOR )	//协调器
    463                  
    464          #elif ( ZSTACK_DEVICE_BUILD == DEVICE_BUILD_ENDDEVICE )	//终端设备                                                   //终端设备
    465          	//发送按键 确认动作 事件
    466          	osal_set_event( SampleApp_TaskID, SAMPLEAPP_KEY_ACK_EVT );
    467          #endif
    468              }
    469          
    470              if ( keys & HAL_KEY_SW_2 )
   \                     ??SampleApp_HandleKeys_0:
   \   000018   EE           MOV     A,R6
   \   000019   A2E1         MOV     C,0xE0 /* A   */.1
   \   00001B   500D         JNC     ??SampleApp_HandleKeys_1
    471              {
    472                  /* The Flashr Command is sent to Group 1.
    473                   * This key toggles this device in and out of group 1.
    474                   * If this device doesn't belong to group 1, this application
    475                   * will not receive the Flash command sent to group 1.
    476                   */
    477                  /*
    478                  aps_Group_t *grp;
    479                  grp = aps_FindGroup( SAMPLEAPP_ENDPOINT, SAMPLEAPP_FLASH_GROUP );
    480                  if ( grp )
    481                  {
    482                      // Remove from the group
    483                      aps_RemoveGroup( SAMPLEAPP_ENDPOINT, SAMPLEAPP_FLASH_GROUP );
    484                  }
    485                  else
    486                  {
    487                      // Add to the flash group
    488                      aps_AddGroup( SAMPLEAPP_ENDPOINT, &SampleApp_Group );
    489                  }
    490                  */
    491                  HalUARTWrite(0x00, "HAL_KEY_SW_2\n", 13);       //按键2串口调试
   \   00001D                ; Setup parameters for call to function HalUARTWrite
   \   00001D   7C0D         MOV     R4,#0xd
   \   00001F   7D00         MOV     R5,#0x0
   \   000021   7A..         MOV     R2,#`?<Constant "HAL_KEY_SW_2\\n">` & 0xff
   \   000023   7B..         MOV     R3,#(`?<Constant "HAL_KEY_SW_2\\n">` >> 8) & 0xff
   \   000025   7900         MOV     R1,#0x0
   \   000027   12....       LCALL   ??HalUARTWrite?relay
    492              }
    493              if ( keys & HAL_KEY_SW_6 )
   \                     ??SampleApp_HandleKeys_1:
   \   00002A   EE           MOV     A,R6
   \   00002B   A2E5         MOV     C,0xE0 /* A   */.5
   \   00002D   500D         JNC     ??SampleApp_HandleKeys_2
    494              {
    495                  HalUARTWrite(0x00, "HAL_KEY_SW_6\n", 13);       //按键6串口调试
   \   00002F                ; Setup parameters for call to function HalUARTWrite
   \   00002F   7C0D         MOV     R4,#0xd
   \   000031   7D00         MOV     R5,#0x0
   \   000033   7A..         MOV     R2,#`?<Constant "HAL_KEY_SW_6\\n">` & 0xff
   \   000035   7B..         MOV     R3,#(`?<Constant "HAL_KEY_SW_6\\n">` >> 8) & 0xff
   \   000037   7900         MOV     R1,#0x0
   \   000039   12....       LCALL   ??HalUARTWrite?relay
    496          #if ( ZSTACK_DEVICE_BUILD == DEVICE_BUILD_ENDDEVICE )	//终端设备
    497          	    //设置按键 查询动作 事件
    498          	    osal_set_event( SampleApp_TaskID, SAMPLEAPP_KEY_QUERY_EVT );
    499          #endif
    500          //==================================================================
    501          #if 0
    502                  //获取设备短地址，并通过发送到串口
    503                  SampleApp_GetShortAddrStr(str4lcd);
    504                  HalUARTWrite(0x00, str4lcd, 4);
    505                  HalUARTWrite(0x00, "\n", 1);
    506                  str4lcd[4] = ':';
    507          #if ( ZSTACK_DEVICE_BUILD == DEVICE_BUILD_COORDINATOR )	//协调器
    508                  str4lcd[5] = 'C';
    509          #elif ( ZSTACK_DEVICE_BUILD == DEVICE_BUILD_ROUTER )	//路由器
    510                  str4lcd[5] = 'R';
    511          #elif ( ZSTACK_DEVICE_BUILD == DEVICE_BUILD_ENDDEVICE )	//终端设备
    512                  str4lcd[5] = 'E';
    513          	    //设置按键 查询动作 事件
    514          	    osal_set_event( SampleApp_TaskID, SAMPLEAPP_KEY_QUERY_EVT );
    515          #else 
    516                  str4lcd[5] = 'U'; 
    517          #endif
    518          	    //将短地址在LCD上显示
    519                  HalLcdWriteString( (char*)str4lcd, HAL_LCD_LINE_3 );
    520          #endif // if 0
    521          //===================================================================
    522              }
    523          }
   \                     ??SampleApp_HandleKeys_2:
   \   00003C   7F01         MOV     R7,#0x1
   \   00003E   02....       LJMP    ?BANKED_LEAVE_XDATA
    524          
    525          /*********************************************************************
    526           * LOCAL FUNCTIONS
    527           */
    528          
    529          /*********************************************************************
    530           * @fn      SampleApp_MessageMSGCB
    531           *
    532           * @brief   Data message processor callback.  This function processes
    533           *          any incoming data - probably from other devices.  So, based
    534           *          on cluster ID, perform the intended action.
    535           *
    536           * @param   none
    537           *
    538           * @return  none
    539           */

   \                                 In  segment BANKED_CODE, align 1, keep-with-next
    540          void SampleApp_MessageMSGCB( afIncomingMSGPacket_t *pkt )
   \                     SampleApp_MessageMSGCB:
    541          {
   \   000000   74F4         MOV     A,#-0xc
   \   000002   12....       LCALL   ?BANKED_ENTER_XDATA
   \   000005                ; Saved register size: 12
   \   000005                ; Auto size: 4
   \   000005   74FC         MOV     A,#-0x4
   \   000007   12....       LCALL   ?ALLOC_XSTACK8
   \   00000A   EA           MOV     A,R2
   \   00000B   FE           MOV     R6,A
   \   00000C   EB           MOV     A,R3
   \   00000D   FF           MOV     R7,A
    542              uint16 flashTime;
    543          #if ( ZSTACK_DEVICE_BUILD == DEVICE_BUILD_COORDINATOR )	//协调器
    544              //uint16 _shortAddr = 0x01;/* 保存短地址 */
    545              uint8 i = 0x00;  //用来计数的
    546              uint8 format = 0x00;
    547              uint8 tmp[4] = {0};
   \   00000E   85..82       MOV     DPL,?XSP + 0
   \   000011   85..83       MOV     DPH,?XSP + 1
   \   000014   AC82         MOV     R4,DPL
   \   000016   AD83         MOV     R5,DPH
   \   000018   7583..       MOV     DPH,#(`?<Constant {0}>` >> 8) & 0xff
   \   00001B   7582..       MOV     DPL,#`?<Constant {0}>` & 0xff
   \   00001E   7404         MOV     A,#0x4
   \   000020   12....       LCALL   ?MOVE_LONG8_XDATA_XDATA
    548              uint8 *value;
    549          #else                                                   //终端设备
    550              uint8 *lcdData;
    551              uint8 i = 0x00;
    552              uint16 tmp = 0x00;
    553              uint16 num = 0x00;
    554              uint8  format = 0x00;
    555              uint8 clearScreen[16] = {0x20};
    556          #endif
    557          
    558              switch ( pkt->clusterId )
   \   000023   8E82         MOV     DPL,R6
   \   000025   8F83         MOV     DPH,R7
   \   000027   A3           INC     DPTR
   \   000028   A3           INC     DPTR
   \   000029   A3           INC     DPTR
   \   00002A   A3           INC     DPTR
   \   00002B   E0           MOVX    A,@DPTR
   \   00002C   F5..         MOV     ?V0 + 2,A
   \   00002E   A3           INC     DPTR
   \   00002F   E0           MOVX    A,@DPTR
   \   000030   F5..         MOV     ?V0 + 3,A
   \   000032   78..         MOV     R0,#?V0 + 2
   \   000034   12....       LCALL   ?US_SWITCH_DENSE
   \                     `?<Jumptable for SampleApp_MessageMSGCB>_0`:
   \   000037   0200         DW        2
   \   000039   01           DB        1
   \   00003A   ....         DW        ??SampleApp_MessageMSGCB_0
   \   00003C   ....         DW        ??SampleApp_MessageMSGCB_1
   \   00003E   ....         DW        ??SampleApp_MessageMSGCB_2
    559              {
    560                  case SAMPLEAPP_P2P_CLUSTERID:
    561          
    562          #if ( ZSTACK_DEVICE_BUILD == DEVICE_BUILD_COORDINATOR )	//协调器
    563          #if 0 //是否启用串口调试
    564                      HalUARTWrite(0, "Coord:[", 7);       //提示接收到数据
    565                      HalUARTWrite(0, pkt->cmd.Data, pkt->cmd.DataLength); //串口输出接收到的数据
    566                      HalUARTWrite(0, "]\n", 2);         // 回车换行
    567          #endif //是否启用串口调试
    568          #elif ( ZSTACK_DEVICE_BUILD == DEVICE_BUILD_ENDDEVICE )	//终端设备
    569          	    HalUARTWrite(0,   "End:[", 5);       //提示接收到数据
    570                      HalUARTWrite(0, pkt->cmd.Data, pkt->cmd.DataLength); //串口输出接收到的数据
    571                      HalUARTWrite(0, "]\n", 2);         // 回车换行
    572          #endif
    573                              
    574          #if ( ZSTACK_DEVICE_BUILD == DEVICE_BUILD_COORDINATOR )	//协调器
    575          	    /*
    576                      //返回数据到终端设备
    577                      _shortAddr = SampleApp_GetShortAddrUint16(pkt->cmd.Data);
    578                      SampleApp_P2P_DstAddr.addr.shortAddr = _shortAddr;            //发给终端设备
    579                      //SampleApp_Send_P2P_Message();
    580                      osal_set_event( SampleApp_TaskID, SAMPLEAPP_SEND_RESPONSE_MSG_EVT );
    581                      */
    582                      /*
    583                       * 0~3 id
    584                       * 4~7 command
    585                       * 8   length - n
    586                       * 9~n+9 value
    587                       */
    588                      //1.将接收到的数据保存在全局变量中。收到数据的长度必须大于9，否则丢弃。
    589                      if( pkt->cmd.DataLength >= 9 )
   \                     ??SampleApp_MessageMSGCB_2:
   \   000040   12....       LCALL   ?Subroutine4 & 0xFFFF
   \                     ??CrossCallReturnLabel_5:
   \   000043   9409         SUBB    A,#0x9
   \   000045   A3           INC     DPTR
   \   000046   E0           MOVX    A,@DPTR
   \   000047   9400         SUBB    A,#0x0
   \   000049   5003         JNC     $+5
   \   00004B   02....       LJMP    ??SampleApp_MessageMSGCB_0 & 0xFFFF
    590                      {
    591                          // id
    592                          for( i=0; i<4; i++ )
   \   00004E   7A00         MOV     R2,#0x0
    593                          {
    594                              localEndDevMsg.guid[i] = pkt->cmd.Data[i];
   \                     ??SampleApp_MessageMSGCB_3:
   \   000050   12....       LCALL   ?Subroutine3 & 0xFFFF
    595                          }
   \                     ??CrossCallReturnLabel_3:
   \   000053   E0           MOVX    A,@DPTR
   \   000054   C0E0         PUSH    A
   \   000056   74..         MOV     A,#localEndDevMsg & 0xff
   \   000058   28           ADD     A,R0
   \   000059   F582         MOV     DPL,A
   \   00005B   74..         MOV     A,#(localEndDevMsg >> 8) & 0xff
   \   00005D   12....       LCALL   ??Subroutine15_0 & 0xFFFF
   \                     ??CrossCallReturnLabel_24:
   \   000060   D0E0         POP     A
   \   000062   F0           MOVX    @DPTR,A
   \   000063   0A           INC     R2
   \   000064   EA           MOV     A,R2
   \   000065   C3           CLR     C
   \   000066   9404         SUBB    A,#0x4
   \   000068   40E6         JC      ??SampleApp_MessageMSGCB_3
    596                          // command
    597                          for( i=0; i<4; i++ )
   \   00006A   7A00         MOV     R2,#0x0
    598                          {
    599                              localEndDevMsg.command[i] = pkt->cmd.Data[i+4];
   \                     ??SampleApp_MessageMSGCB_4:
   \   00006C   12....       LCALL   ?Subroutine3 & 0xFFFF
    600                          }
   \                     ??CrossCallReturnLabel_4:
   \   00006F   A3           INC     DPTR
   \   000070   A3           INC     DPTR
   \   000071   A3           INC     DPTR
   \   000072   A3           INC     DPTR
   \   000073   E0           MOVX    A,@DPTR
   \   000074   C0E0         PUSH    A
   \   000076   74..         MOV     A,#(localEndDevMsg + 4) & 0xff
   \   000078   28           ADD     A,R0
   \   000079   F582         MOV     DPL,A
   \   00007B   74..         MOV     A,#((localEndDevMsg + 4) >> 8) & 0xff
   \   00007D   12....       LCALL   ??Subroutine15_0 & 0xFFFF
   \                     ??CrossCallReturnLabel_25:
   \   000080   D0E0         POP     A
   \   000082   F0           MOVX    @DPTR,A
   \   000083   0A           INC     R2
   \   000084   EA           MOV     A,R2
   \   000085   C3           CLR     C
   \   000086   9404         SUBB    A,#0x4
   \   000088   40E2         JC      ??SampleApp_MessageMSGCB_4
    601                          localEndDevMsg.length = pkt->cmd.Data[8];
   \   00008A   12....       LCALL   ?Subroutine10 & 0xFFFF
   \                     ??CrossCallReturnLabel_20:
   \   00008D   F583         MOV     DPH,A
   \   00008F   8882         MOV     DPL,R0
   \   000091   A3           INC     DPTR
   \   000092   A3           INC     DPTR
   \   000093   A3           INC     DPTR
   \   000094   A3           INC     DPTR
   \   000095   A3           INC     DPTR
   \   000096   A3           INC     DPTR
   \   000097   A3           INC     DPTR
   \   000098   A3           INC     DPTR
   \   000099   E0           MOVX    A,@DPTR
   \   00009A   90....       MOV     DPTR,#localEndDevMsg + 8
   \   00009D   F0           MOVX    @DPTR,A
    602                          if( localEndDevMsg.length > 0 )
   \   00009E   7003         JNZ     $+5
   \   0000A0   02....       LJMP    ??SampleApp_MessageMSGCB_5 & 0xFFFF
    603                          {
    604                              value = (uint8*)osal_msg_allocate(localEndDevMsg.length);
   \   0000A3                ; Setup parameters for call to function osal_msg_allocate
   \   0000A3   FA           MOV     R2,A
   \   0000A4   7B00         MOV     R3,#0x0
   \   0000A6   12....       LCALL   ??osal_msg_allocate?relay
   \   0000A9   8A..         MOV     ?V0 + 0,R2
   \   0000AB   8B..         MOV     ?V0 + 1,R3
    605                              if( 0x00 == SampleUtil_CompareUint8Array(localEndDevMsg.command,"PING",4) )
   \   0000AD                ; Setup parameters for call to function SampleUtil_CompareUint8Array
   \   0000AD   7904         MOV     R1,#0x4
   \   0000AF   7C..         MOV     R4,#`?<Constant "PING">` & 0xff
   \   0000B1   7D..         MOV     R5,#(`?<Constant "PING">` >> 8) & 0xff
   \   0000B3   7A..         MOV     R2,#(localEndDevMsg + 4) & 0xff
   \   0000B5   7B..         MOV     R3,#((localEndDevMsg + 4) >> 8) & 0xff
   \   0000B7   12....       LCALL   ??SampleUtil_CompareUint8Array?relay
   \   0000BA   E9           MOV     A,R1
   \   0000BB   702B         JNZ     ??SampleApp_MessageMSGCB_6
    606                              {
    607                                  if( pkt->cmd.DataLength >= 13)
   \   0000BD   12....       LCALL   ?Subroutine4 & 0xFFFF
   \                     ??CrossCallReturnLabel_6:
   \   0000C0   940D         SUBB    A,#0xd
   \   0000C2   A3           INC     DPTR
   \   0000C3   E0           MOVX    A,@DPTR
   \   0000C4   9400         SUBB    A,#0x0
   \   0000C6   5003         JNC     $+5
   \   0000C8   02....       LJMP    ??SampleApp_MessageMSGCB_0 & 0xFFFF
    608                                  {
    609          #if 0
    610                                      for( i=0; i<4; i++ )
    611                                      {
    612                                          localEndDevMsg.value.short_addr[i] = pkt->cmd.Data[i+9];
    613                                      }
    614          #endif
    615                                      for( i=0; i<localEndDevMsg.length; i++ )
   \   0000CB   7A00         MOV     R2,#0x0
   \                     ??SampleApp_MessageMSGCB_7:
   \   0000CD   90....       MOV     DPTR,#localEndDevMsg + 8
   \   0000D0   E0           MOVX    A,@DPTR
   \   0000D1   F8           MOV     R0,A
   \   0000D2   EA           MOV     A,R2
   \   0000D3   C3           CLR     C
   \   0000D4   98           SUBB    A,R0
   \   0000D5   4003         JC      $+5
   \   0000D7   02....       LJMP    ??SampleApp_MessageMSGCB_5 & 0xFFFF
    616                                      {
    617                                          value[i] = pkt->cmd.Data[i+9];
   \   0000DA   12....       LCALL   ?Subroutine2 & 0xFFFF
    618                                      }
   \                     ??CrossCallReturnLabel_0:
   \   0000DD   C0E0         PUSH    A
   \   0000DF   12....       LCALL   ?Subroutine9 & 0xFFFF
   \                     ??CrossCallReturnLabel_15:
   \   0000E2   D0E0         POP     A
   \   0000E4   F0           MOVX    @DPTR,A
   \   0000E5   0A           INC     R2
   \   0000E6   80E5         SJMP    ??SampleApp_MessageMSGCB_7
    619                                  }
    620                                  else
    621                                  {
    622                                      //格式错误
    623                                      format = 0x01;
    624                                  }
    625                              }
    626                              else if( 0x00 == SampleUtil_CompareUint8Array(localEndDevMsg.command,"TKME",4) ||
    627                                       0x00 == SampleUtil_CompareUint8Array(localEndDevMsg.command,"ADME",4)
    628                                      )
   \                     ??SampleApp_MessageMSGCB_6:
   \   0000E8                ; Setup parameters for call to function SampleUtil_CompareUint8Array
   \   0000E8   7904         MOV     R1,#0x4
   \   0000EA   7C..         MOV     R4,#`?<Constant "TKME">` & 0xff
   \   0000EC   7D..         MOV     R5,#(`?<Constant "TKME">` >> 8) & 0xff
   \   0000EE   7A..         MOV     R2,#(localEndDevMsg + 4) & 0xff
   \   0000F0   7B..         MOV     R3,#((localEndDevMsg + 4) >> 8) & 0xff
   \   0000F2   12....       LCALL   ??SampleUtil_CompareUint8Array?relay
   \   0000F5   E9           MOV     A,R1
   \   0000F6   6010         JZ      ??SampleApp_MessageMSGCB_8
   \   0000F8                ; Setup parameters for call to function SampleUtil_CompareUint8Array
   \   0000F8   7904         MOV     R1,#0x4
   \   0000FA   7C..         MOV     R4,#`?<Constant "ADME">` & 0xff
   \   0000FC   7D..         MOV     R5,#(`?<Constant "ADME">` >> 8) & 0xff
   \   0000FE   7A..         MOV     R2,#(localEndDevMsg + 4) & 0xff
   \   000100   7B..         MOV     R3,#((localEndDevMsg + 4) >> 8) & 0xff
   \   000102   12....       LCALL   ??SampleUtil_CompareUint8Array?relay
   \   000105   E9           MOV     A,R1
   \   000106   7032         JNZ     ??SampleApp_MessageMSGCB_9
    629                              {
    630                                  if( pkt->cmd.DataLength >= (9+localEndDevMsg.length) )
   \                     ??SampleApp_MessageMSGCB_8:
   \   000108   12....       LCALL   ?Subroutine5 & 0xFFFF
   \                     ??CrossCallReturnLabel_7:
   \   00010B   C082         PUSH    DPL
   \   00010D   C083         PUSH    DPH
   \   00010F   12....       LCALL   ?Subroutine6 & 0xFFFF
   \                     ??CrossCallReturnLabel_9:
   \   000112   D083         POP     DPH
   \   000114   D082         POP     DPL
   \   000116   E0           MOVX    A,@DPTR
   \   000117   98           SUBB    A,R0
   \   000118   A3           INC     DPTR
   \   000119   E0           MOVX    A,@DPTR
   \   00011A   99           SUBB    A,R1
   \   00011B   5003         JNC     $+5
   \   00011D   02....       LJMP    ??SampleApp_MessageMSGCB_0 & 0xFFFF
    631                                  {
    632                                      for( i=0; i<localEndDevMsg.length; i++ )
   \   000120   7A00         MOV     R2,#0x0
   \                     ??SampleApp_MessageMSGCB_10:
   \   000122   90....       MOV     DPTR,#localEndDevMsg + 8
   \   000125   E0           MOVX    A,@DPTR
   \   000126   F8           MOV     R0,A
   \   000127   EA           MOV     A,R2
   \   000128   C3           CLR     C
   \   000129   98           SUBB    A,R0
   \   00012A   5040         JNC     ??SampleApp_MessageMSGCB_5
    633                                      {
    634                                          value[i] = pkt->cmd.Data[i+9];
   \   00012C   12....       LCALL   ?Subroutine2 & 0xFFFF
    635                                      }
   \                     ??CrossCallReturnLabel_1:
   \   00012F   C0E0         PUSH    A
   \   000131   12....       LCALL   ?Subroutine9 & 0xFFFF
   \                     ??CrossCallReturnLabel_16:
   \   000134   D0E0         POP     A
   \   000136   F0           MOVX    @DPTR,A
   \   000137   0A           INC     R2
   \   000138   80E8         SJMP    ??SampleApp_MessageMSGCB_10
    636                                  }
    637                                  else
    638                                  {
    639                                      //格式错误
    640                                      format = 0x01;
    641                                  }
    642                              }
    643                              else  //扩展
    644                              {
    645                                  if( pkt->cmd.DataLength >= (9+localEndDevMsg.length) )
   \                     ??SampleApp_MessageMSGCB_9:
   \   00013A   12....       LCALL   ?Subroutine5 & 0xFFFF
   \                     ??CrossCallReturnLabel_8:
   \   00013D   C082         PUSH    DPL
   \   00013F   C083         PUSH    DPH
   \   000141   12....       LCALL   ?Subroutine6 & 0xFFFF
   \                     ??CrossCallReturnLabel_10:
   \   000144   D083         POP     DPH
   \   000146   D082         POP     DPL
   \   000148   E0           MOVX    A,@DPTR
   \   000149   98           SUBB    A,R0
   \   00014A   A3           INC     DPTR
   \   00014B   E0           MOVX    A,@DPTR
   \   00014C   99           SUBB    A,R1
   \   00014D   5003         JNC     $+5
   \   00014F   02....       LJMP    ??SampleApp_MessageMSGCB_0 & 0xFFFF
    646                                  {
    647                                      for( i=0; i<localEndDevMsg.length; i++ )
   \   000152   7A00         MOV     R2,#0x0
   \   000154   800C         SJMP    ??SampleApp_MessageMSGCB_11
    648                                      {
    649                                          value[i] = pkt->cmd.Data[i+9];
   \                     ??SampleApp_MessageMSGCB_12:
   \   000156   12....       LCALL   ?Subroutine2 & 0xFFFF
    650                                      }
   \                     ??CrossCallReturnLabel_2:
   \   000159   C0E0         PUSH    A
   \   00015B   12....       LCALL   ?Subroutine9 & 0xFFFF
   \                     ??CrossCallReturnLabel_17:
   \   00015E   D0E0         POP     A
   \   000160   F0           MOVX    @DPTR,A
   \   000161   0A           INC     R2
   \                     ??SampleApp_MessageMSGCB_11:
   \   000162   90....       MOV     DPTR,#localEndDevMsg + 8
   \   000165   E0           MOVX    A,@DPTR
   \   000166   F8           MOV     R0,A
   \   000167   EA           MOV     A,R2
   \   000168   C3           CLR     C
   \   000169   98           SUBB    A,R0
   \   00016A   40EA         JC      ??SampleApp_MessageMSGCB_12
    651                                  }
    652                                  else
    653                                  {
    654                                      //格式错误
    655                                      format = 0x01;
    656                                  }
    657                              }
    658                          }
    659                      }
    660                      else
    661                      {
    662                          //格式错误
    663                          format = 0x02;
    664                      }
    665                      //2 通过串口发送到上位机
    666                      if( format == 0x01 )
    667                      { 
    668                          //格式错误
    669                          
    670                      }
    671                      else if( format == 0x02 )
    672                      {
    673                          //格式错误
    674                      }
    675                      else if( format == 0x00 )
    676                      {
    677                          /*
    678                           * sof
    679                           * length
    680                           * guid
    681                           * command
    682                           * value
    683                           */
    684                          HalUARTWrite(0x00, "#", 1);
   \                     ??SampleApp_MessageMSGCB_5:
   \   00016C                ; Setup parameters for call to function HalUARTWrite
   \   00016C   7C01         MOV     R4,#0x1
   \   00016E   7D00         MOV     R5,#0x0
   \   000170   7A..         MOV     R2,#`?<Constant "#">` & 0xff
   \   000172   7B..         MOV     R3,#(`?<Constant "#">` >> 8) & 0xff
   \   000174   7900         MOV     R1,#0x0
   \   000176   12....       LCALL   ??HalUARTWrite?relay
    685                          tmp[0] = localEndDevMsg.length;
   \   000179   90....       MOV     DPTR,#localEndDevMsg + 8
   \   00017C   12....       LCALL   ?Subroutine7 & 0xFFFF
    686                          HalUARTWrite(0x00, tmp, 1);
   \                     ??CrossCallReturnLabel_11:
   \   00017F                ; Setup parameters for call to function HalUARTWrite
   \   00017F   7C01         MOV     R4,#0x1
   \   000181   7D00         MOV     R5,#0x0
   \   000183   AA82         MOV     R2,DPL
   \   000185   AB83         MOV     R3,DPH
   \   000187   7900         MOV     R1,#0x0
   \   000189   12....       LCALL   ??HalUARTWrite?relay
    687                          HalUARTWrite(0x00, localEndDevMsg.guid, 4);
   \   00018C                ; Setup parameters for call to function HalUARTWrite
   \   00018C   7C04         MOV     R4,#0x4
   \   00018E   7D00         MOV     R5,#0x0
   \   000190   7A..         MOV     R2,#localEndDevMsg & 0xff
   \   000192   7B..         MOV     R3,#(localEndDevMsg >> 8) & 0xff
   \   000194   7900         MOV     R1,#0x0
   \   000196   12....       LCALL   ??HalUARTWrite?relay
    688                          HalUARTWrite(0x00, localEndDevMsg.command, 4);
   \   000199                ; Setup parameters for call to function HalUARTWrite
   \   000199   7C04         MOV     R4,#0x4
   \   00019B   7D00         MOV     R5,#0x0
   \   00019D   7A..         MOV     R2,#(localEndDevMsg + 4) & 0xff
   \   00019F   7B..         MOV     R3,#((localEndDevMsg + 4) >> 8) & 0xff
   \   0001A1   7900         MOV     R1,#0x0
   \   0001A3   12....       LCALL   ??HalUARTWrite?relay
    689                          //HalUARTWrite(0x00, localEndDevMsg.value.short_addr, 4);
    690                          if( localEndDevMsg.length > 0 )
   \   0001A6   90....       MOV     DPTR,#localEndDevMsg + 8
   \   0001A9   E0           MOVX    A,@DPTR
   \   0001AA   601A         JZ      ??SampleApp_MessageMSGCB_13
    691                          {
    692                              tmp[0] = localEndDevMsg.length;
   \   0001AC   85..82       MOV     DPL,?XSP + 0
   \   0001AF   85..83       MOV     DPH,?XSP + 1
   \   0001B2   F0           MOVX    @DPTR,A
    693                              HalUARTWrite(0x00, value, localEndDevMsg.length);
   \   0001B3                ; Setup parameters for call to function HalUARTWrite
   \   0001B3   FC           MOV     R4,A
   \   0001B4   7D00         MOV     R5,#0x0
   \   0001B6   AA..         MOV     R2,?V0 + 0
   \   0001B8   AB..         MOV     R3,?V0 + 1
   \   0001BA   7900         MOV     R1,#0x0
   \   0001BC   12....       LCALL   ??HalUARTWrite?relay
    694                              osal_msg_deallocate(value);
   \   0001BF                ; Setup parameters for call to function osal_msg_deallocate
   \   0001BF   AA..         MOV     R2,?V0 + 0
   \   0001C1   AB..         MOV     R3,?V0 + 1
   \   0001C3   12....       LCALL   ??osal_msg_deallocate?relay
    695                          }
    696          #if 1   //调试时，控制台换行
    697                          HalUARTWrite(0x00, "\n", 1);
   \                     ??SampleApp_MessageMSGCB_13:
   \   0001C6                ; Setup parameters for call to function HalUARTWrite
   \   0001C6   7C01         MOV     R4,#0x1
   \   0001C8   7D00         MOV     R5,#0x0
   \   0001CA   7A..         MOV     R2,#`?<Constant "\\n">` & 0xff
   \   0001CC   7B..         MOV     R3,#(`?<Constant "\\n">` >> 8) & 0xff
   \   0001CE   7900         MOV     R1,#0x0
   \   0001D0   12....       LCALL   ??HalUARTWrite?relay
   \   0001D3   8030         SJMP    ??SampleApp_MessageMSGCB_0
    698          #endif
    699                      }
    700          #elif ( ZSTACK_DEVICE_BUILD == DEVICE_BUILD_ENDDEVICE )	//终端设备
    701                      /*
    702                       * 0~3 id
    703                       * 4~7 command
    704                       * 8   length - n
    705                       * 9~n+9 value
    706                       */
    707                      //1.将接收到的数据保存在全局变量中。收到数据的长度必须大于9，否则丢弃。
    708                      if( pkt->cmd.DataLength >= 9 )
    709                      {
    710                          // id
    711                          for( i=0; i<4; i++ )
    712                          {
    713                              localEndDevMsg.guid[i] = pkt->cmd.Data[i];
    714                          }
    715                          // command
    716                          for( i=0; i<4; i++ )
    717                          {
    718                              localEndDevMsg.command[i] = pkt->cmd.Data[i+4];
    719                          }
    720                          // length
    721                          localEndDevMsg.length = pkt->cmd.Data[8];
    722                          // value
    723                          if( localEndDevMsg.length > 0 )
    724                          {
    725                              if( 0x00 == SampleUtil_CompareUint8Array(localEndDevMsg.command,"TKME",4)   // TKME
    726                                 || 0x00 == SampleUtil_CompareUint8Array(localEndDevMsg.command,"ADME",4) // ADME
    727                                 || 0x00 == SampleUtil_CompareUint8Array(localEndDevMsg.command,"LTME",4) // LTME
    728                                   )
    729                              {
    730                                  if( pkt->cmd.DataLength >= (localEndDevMsg.length+9))
    731                                  {
    732                                      localEndDevMsg.value.number = SampleUtil_GetValueFromU8Array(&pkt->cmd.Data[9], localEndDevMsg.length);
    733                                  }
    734                                  else
    735                                  {
    736                                      //格式错误2，value的数据长度与length不匹配
    737                                      format = 0x02;
    738                                  }
    739                              }
    740                          }
    741                      }
    742                      else
    743                      {
    744                          //格式错误1，数据长度小于9个字节
    745                          format = 0x01;
    746                      }
    747                      //2 通过串口发送到上位机
    748                      if( format == 0x01 )
    749                      { 
    750                          //格式错误1，数据长度小于9个字节
    751                          //无线回复 "FEEG" "Generic Error"
    752                          SampleApp_Send_E2C_Ack("FEEG",4);
    753                      }
    754                      else if( format == 0x02 )
    755                      {
    756                          //格式错误2，value的数据长度与length不匹配
    757                          //无线回复 "FEEV" value数据长度不匹配
    758                          SampleApp_Send_E2C_Ack("FEEV",4);
    759                      }
    760                      else if( format == 0x00 )
    761                      {
    762                          /*
    763                           * sof
    764                           * length
    765                           * guid
    766                           * command
    767                           * value
    768                           */
    769          #if 1
    770                          //1 验证ID格式，错误无线回复 "FEEI"，并break
    771                          if( 0x00 != SampleUtil_ValidateGuidFormat(localEndDevMsg.guid) )
    772                          {
    773                              //无线回复 "FEEI"
    774                              SampleApp_Send_E2C_Ack("FEEI",4); 
    775                              break;
    776                          }
    777                          //2 验证CMD命令格式，错误无线回复 "FEEC"，并break
    778                          if( ! ( 0x00 == SampleUtil_CompareUint8Array(localEndDevMsg.command,"TKME",4)   // TKME
    779                                 || 0x00 == SampleUtil_CompareUint8Array(localEndDevMsg.command,"ADME",4) // ADME
    780                                 || 0x00 == SampleUtil_CompareUint8Array(localEndDevMsg.command,"AKTK",4) // AKTK
    781                                 || 0x00 == SampleUtil_CompareUint8Array(localEndDevMsg.command,"AKAD",4) // AKAD
    782                                 || 0x00 == SampleUtil_CompareUint8Array(localEndDevMsg.command,"LTME",4) // LTME
    783                                ) )
    784                          {
    785                              //无线回复 "FEEC"
    786                              SampleApp_Send_E2C_Ack("FEEC",4); 
    787                              break;
    788                          }
    789                          //3 验证ID和当前设备FW写入的ID是否匹配，不匹配无线回复 "IDNM"，并break
    790                          if( GUID != SampleUtil_GetShortAddrFromU8Array(localEndDevMsg.guid) )
    791                          {
    792                              //无线回复 "IDNM"
    793                              SampleApp_Send_E2C_Ack("IDNM",4); 
    794                              break;
    795                          }
    796          
    797                          //4.1 在LCD上显示，并点亮指示灯，无线回复 "OK"
    798                          if( 0x00 == SampleUtil_CompareUint8Array(localEndDevMsg.command,"TKME",4)   // TKME
    799                                 || 0x00 == SampleUtil_CompareUint8Array(localEndDevMsg.command,"ADME",4) // ADME
    800                                 || 0x00 == SampleUtil_CompareUint8Array(localEndDevMsg.command,"LTME",4) // LTME
    801                            )
    802                          {
    803                              lcdData = (uint8*)osal_msg_allocate(7+localEndDevMsg.length);
    804                              for( i=0;i<4;i++ )
    805                              {
    806                                  lcdData[i] = localEndDevMsg.command[i];
    807                              }
    808                              lcdData[4] = '[';
    809                              num = localEndDevMsg.value.number;
    810                              for( i=0;i<localEndDevMsg.length;i++ )
    811                              {
    812                                  tmp = num % 10;
    813                                  lcdData[localEndDevMsg.length+4-i] = tmp+'0';
    814                                  num /= 10;
    815                              }
    816                              lcdData[5+localEndDevMsg.length] = ']';
    817                              lcdData[6+localEndDevMsg.length] = '\0';
    818                              HalLcdWriteString( (char*)lcdData, HAL_LCD_LINE_3 );
    819                              osal_msg_deallocate((uint8*)lcdData);
    820                              // 点亮指示灯
    821                              if( 0x00 == SampleUtil_CompareUint8Array(localEndDevMsg.command,"TKME",4))   // TKME
    822                              {
    823                                  HalLedSet (HAL_LED_2, HAL_LED_MODE_OFF);  
    824                                  HalLedSet (HAL_LED_1, HAL_LED_MODE_ON);
    825                              }
    826                              else if( 0x00 == SampleUtil_CompareUint8Array(localEndDevMsg.command,"ADME",4))   // ADME
    827                              {
    828                                  HalLedSet (HAL_LED_1, HAL_LED_MODE_OFF);
    829                                  HalLedSet (HAL_LED_2, HAL_LED_MODE_ON);
    830                              }
    831                              else if( 0x00 == SampleUtil_CompareUint8Array(localEndDevMsg.command,"LTME",4) )    // LTME
    832                              {
    833                                  HalLedSet (HAL_LED_1, HAL_LED_MODE_OFF);
    834                                  HalLedSet (HAL_LED_2, HAL_LED_MODE_OFF);
    835                                  SampleAppAckEvent = NOT_EXIST;
    836                              }
    837                              //无线回复 "OK"
    838                              SampleApp_Send_E2C_Ack("OK",2);
    839                              
    840                              if( 0x00 == SampleUtil_CompareUint8Array(localEndDevMsg.command,"TKME",4)   // TKME
    841                                )
    842                              {
    843                                  SampleAppAckEvent = TAKE_MEDIC_EVT;
    844                              }
    845                              else if( 0x00 == SampleUtil_CompareUint8Array(localEndDevMsg.command,"ADME",4) // ADME
    846                                     )
    847                              {
    848                                  SampleAppAckEvent = ADD_MEDIC_EVT;
    849                              }
    850                          }
    851                          //4.2 在LCD上显示，并关闭指示灯，无线回复 "OK"
    852                          else if( 0x00 == SampleUtil_CompareUint8Array(localEndDevMsg.command,"AKTK",4) // AKTK
    853                                 )
    854                          {
    855                              SampleAppAckEvent = NOT_EXIST;
    856                              HalLedSet (HAL_LED_1, HAL_LED_MODE_OFF); 
    857                              HalLcdWriteString( (char*)clearScreen, HAL_LCD_LINE_3 );
    858                              //无线回复 "OK"
    859                              SampleApp_Send_E2C_Ack("OK",2);
    860                          }
    861                          //4.2 在LCD上显示，并关闭指示灯，无线回复 "OK"
    862                          else if( 0x00 == SampleUtil_CompareUint8Array(localEndDevMsg.command,"AKAD",4) // AKAD
    863                                 )
    864                          {
    865                              SampleAppAckEvent = NOT_EXIST;
    866                              HalLedSet (HAL_LED_2, HAL_LED_MODE_OFF);
    867                              HalLcdWriteString( (char*)clearScreen, HAL_LCD_LINE_3 );
    868                              //无线回复 "OK"
    869                              SampleApp_Send_E2C_Ack("OK",2);
    870                          }
    871          #endif
    872          #if 0
    873                          HalLcdWriteStringValue("TAKE:",localEndDevMsg.value.number,10,HAL_LCD_LINE_3);
    874          #endif
    875                      }
    876          #endif
    877                      break;    
    878                  case SAMPLEAPP_PERIODIC_CLUSTERID:
    879                      break;
    880          
    881                  case SAMPLEAPP_FLASH_CLUSTERID:
    882                      flashTime = BUILD_UINT16(pkt->cmd.Data[1], pkt->cmd.Data[2] );
    883                      HalLedBlink( HAL_LED_4, 4, 50, (flashTime / 4) );
   \                     ??SampleApp_MessageMSGCB_1:
   \   0001D5   12....       LCALL   ?Subroutine10 & 0xFFFF
   \                     ??CrossCallReturnLabel_21:
   \   0001D8   F9           MOV     R1,A
   \   0001D9                ; Setup parameters for call to function HalLedBlink
   \   0001D9   8882         MOV     DPL,R0
   \   0001DB   8983         MOV     DPH,R1
   \   0001DD   A3           INC     DPTR
   \   0001DE   E0           MOVX    A,@DPTR
   \   0001DF   FA           MOV     R2,A
   \   0001E0   8882         MOV     DPL,R0
   \   0001E2   8983         MOV     DPH,R1
   \   0001E4   A3           INC     DPTR
   \   0001E5   A3           INC     DPTR
   \   0001E6   E0           MOVX    A,@DPTR
   \   0001E7   F9           MOV     R1,A
   \   0001E8   EA           MOV     A,R2
   \   0001E9   2400         ADD     A,#0x0
   \   0001EB   F5..         MOV     ?V0 + 0,A
   \   0001ED   E4           CLR     A
   \   0001EE   39           ADDC    A,R1
   \   0001EF   F5..         MOV     ?V0 + 1,A
   \   0001F1   7402         MOV     A,#0x2
   \   0001F3   78..         MOV     R0,#?V0 + 0
   \   0001F5   12....       LCALL   ?US_SHR
   \   0001F8   AC..         MOV     R4,?V0 + 0
   \   0001FA   AD..         MOV     R5,?V0 + 1
   \   0001FC   7B32         MOV     R3,#0x32
   \   0001FE   7A04         MOV     R2,#0x4
   \   000200   7908         MOV     R1,#0x8
   \   000202   12....       LCALL   ??HalLedBlink?relay
    884                      break;
    885              }
    886          }
   \                     ??SampleApp_MessageMSGCB_0:
   \   000205   7404         MOV     A,#0x4
   \   000207   12....       LCALL   ?DEALLOC_XSTACK8
   \   00020A   02....       LJMP    ?Subroutine0 & 0xFFFF

   \                                 In  segment BANKED_CODE, align 1, keep-with-next
   \                     ?Subroutine10:
   \   000000   EE           MOV     A,R6
   \   000001   2422         ADD     A,#0x22
   \   000003   12....       LCALL   ??Subroutine14_0 & 0xFFFF
   \                     ??CrossCallReturnLabel_30:
   \   000006   E0           MOVX    A,@DPTR
   \   000007   F8           MOV     R0,A
   \   000008   A3           INC     DPTR
   \   000009   E0           MOVX    A,@DPTR
   \   00000A   22           RET

   \                                 In  segment BANKED_CODE, align 1, keep-with-next
   \                     ?Subroutine6:
   \   000000   90....       MOV     DPTR,#localEndDevMsg + 8
   \   000003   E0           MOVX    A,@DPTR
   \   000004   2409         ADD     A,#0x9
   \   000006   F8           MOV     R0,A
   \   000007   E4           CLR     A
   \   000008   3400         ADDC    A,#0x0
   \   00000A   F9           MOV     R1,A
   \   00000B   22           RET

   \                                 In  segment BANKED_CODE, align 1, keep-with-next
   \                     ?Subroutine5:
   \   000000   12....       LCALL   ?Subroutine13 & 0xFFFF
   \                     ??CrossCallReturnLabel_32:
   \   000003   22           RET

   \                                 In  segment BANKED_CODE, align 1, keep-with-next
   \                     ?Subroutine13:
   \   000000   EE           MOV     A,R6
   \   000001   2420         ADD     A,#0x20
   \   000003                REQUIRE ??Subroutine14_0
   \   000003                ; // Fall through to label ??Subroutine14_0

   \                                 In  segment BANKED_CODE, align 1, keep-with-next
   \                     ??Subroutine14_0:
   \   000000   F582         MOV     DPL,A
   \   000002   EF           MOV     A,R7
   \   000003                REQUIRE ??Subroutine15_0
   \   000003                ; // Fall through to label ??Subroutine15_0

   \                                 In  segment BANKED_CODE, align 1, keep-with-next
   \                     ??Subroutine15_0:
   \   000000   3400         ADDC    A,#0x0
   \   000002   F583         MOV     DPH,A
   \   000004   22           RET

   \                                 In  segment BANKED_CODE, align 1, keep-with-next
   \                     ?Subroutine4:
   \   000000   12....       LCALL   ?Subroutine13 & 0xFFFF
   \                     ??CrossCallReturnLabel_31:
   \   000003   C3           CLR     C
   \   000004   E0           MOVX    A,@DPTR
   \   000005   22           RET

   \                                 In  segment BANKED_CODE, align 1, keep-with-next
   \                     ?Subroutine3:
   \   000000   12....       LCALL   ?Subroutine12 & 0xFFFF
   \                     ??CrossCallReturnLabel_23:
   \   000003   22           RET

   \                                 In  segment BANKED_CODE, align 1, keep-with-next
   \                     ?Subroutine12:
   \   000000   8A82         MOV     DPL,R2
   \   000002   A882         MOV     R0,DPL
   \   000004   EE           MOV     A,R6
   \   000005   2422         ADD     A,#0x22
   \   000007   F582         MOV     DPL,A
   \   000009   EF           MOV     A,R7
   \   00000A   3400         ADDC    A,#0x0
   \   00000C   F583         MOV     DPH,A
   \   00000E   E0           MOVX    A,@DPTR
   \   00000F   28           ADD     A,R0
   \   000010   FB           MOV     R3,A
   \   000011   A3           INC     DPTR
   \   000012   E0           MOVX    A,@DPTR
   \   000013   3400         ADDC    A,#0x0
   \   000015   8B82         MOV     DPL,R3
   \   000017   F583         MOV     DPH,A
   \   000019   22           RET

   \                                 In  segment BANKED_CODE, align 1, keep-with-next
   \                     ?Subroutine2:
   \   000000   12....       LCALL   ?Subroutine12 & 0xFFFF
   \                     ??CrossCallReturnLabel_22:
   \   000003   A3           INC     DPTR
   \   000004   A3           INC     DPTR
   \   000005   A3           INC     DPTR
   \   000006   A3           INC     DPTR
   \   000007   A3           INC     DPTR
   \   000008   A3           INC     DPTR
   \   000009   A3           INC     DPTR
   \   00000A   A3           INC     DPTR
   \   00000B   A3           INC     DPTR
   \   00000C   E0           MOVX    A,@DPTR
   \   00000D   22           RET

   \                                 In  segment BANKED_CODE, align 1, keep-with-next
   \                     ?Subroutine7:
   \   000000   E0           MOVX    A,@DPTR
   \   000001   85..82       MOV     DPL,?XSP + 0
   \   000004   85..83       MOV     DPH,?XSP + 1
   \   000007   F0           MOVX    @DPTR,A
   \   000008   22           RET

   \                                 In  segment BANKED_CODE, align 1, keep-with-next
   \                     ?Subroutine9:
   \   000000   E5..         MOV     A,?V0 + 0
   \   000002   28           ADD     A,R0
   \   000003   F582         MOV     DPL,A
   \   000005   E5..         MOV     A,?V0 + 1
   \   000007   12....       LCALL   ??Subroutine15_0 & 0xFFFF
   \                     ??CrossCallReturnLabel_28:
   \   00000A   22           RET
    887          
    888          /*********************************************************************
    889           * @fn      SampleApp_SendPeriodicMessage
    890           *
    891           * @brief   Send the periodic message.
    892           *
    893           * @param   none
    894           *
    895           * @return  none
    896           */

   \                                 In  segment BANKED_CODE, align 1, keep-with-next
    897          void SampleApp_SendPeriodicMessage( void )
   \                     SampleApp_SendPeriodicMessage:
    898          {
   \   000000   74F6         MOV     A,#-0xa
   \   000002   12....       LCALL   ?BANKED_ENTER_XDATA
   \   000005                ; Saved register size: 10
   \   000005                ; Auto size: 0
    899              if ( AF_DataRequest( &SampleApp_Periodic_DstAddr, &SampleApp_epDesc,
    900                                   SAMPLEAPP_PERIODIC_CLUSTERID,
    901                                   1,
    902                                   (uint8*)&SampleAppPeriodicCounter,
    903                                   &SampleApp_TransID,
    904                                   AF_DISCV_ROUTE,
    905                                   AF_DEFAULT_RADIUS ) == afStatus_SUCCESS )
   \   000005                ; Setup parameters for call to function AF_DataRequest
   \   000005   75..1E       MOV     ?V0 + 0,#0x1e
   \   000008   78..         MOV     R0,#?V0 + 0
   \   00000A   12....       LCALL   ?PUSH_XSTACK_I_ONE
   \   00000D   75....       MOV     ?V0 + 0,#SampleApp_TransID & 0xff
   \   000010   75....       MOV     ?V0 + 1,#(SampleApp_TransID >> 8) & 0xff
   \   000013   78..         MOV     R0,#?V0 + 0
   \   000015   12....       LCALL   ?PUSH_XSTACK_I_TWO
   \   000018   75....       MOV     ?V0 + 0,#SampleAppPeriodicCounter & 0xff
   \   00001B   75....       MOV     ?V0 + 1,#(SampleAppPeriodicCounter >> 8) & 0xff
   \   00001E   78..         MOV     R0,#?V0 + 0
   \   000020   12....       LCALL   ?PUSH_XSTACK_I_TWO
   \   000023   75..01       MOV     ?V0 + 0,#0x1
   \   000026   75..00       MOV     ?V0 + 1,#0x0
   \   000029   78..         MOV     R0,#?V0 + 0
   \   00002B   12....       LCALL   ?PUSH_XSTACK_I_TWO
   \   00002E   78..         MOV     R0,#?V0 + 0
   \   000030   12....       LCALL   ?PUSH_XSTACK_I_TWO
   \   000033   7920         MOV     R1,#0x20
   \   000035   7C..         MOV     R4,#SampleApp_epDesc & 0xff
   \   000037   7D..         MOV     R5,#(SampleApp_epDesc >> 8) & 0xff
   \   000039   7A..         MOV     R2,#SampleApp_Periodic_DstAddr & 0xff
   \   00003B   7B..         MOV     R3,#(SampleApp_Periodic_DstAddr >> 8) & 0xff
   \   00003D   12....       LCALL   ??Subroutine16_0 & 0xFFFF
   \                     ??CrossCallReturnLabel_35:
   \   000040                REQUIRE ?Subroutine1
   \   000040                ; // Fall through to label ?Subroutine1
    906              {
    907              }
    908              else
    909              {
    910                  // Error occurred in request to send.
    911              }
    912          }

   \                                 In  segment BANKED_CODE, align 1, keep-with-next
   \                     ?Subroutine1:
   \   000000   12....       LCALL   ?DEALLOC_XSTACK8
   \   000003   7F02         MOV     R7,#0x2
   \   000005   02....       LJMP    ?BANKED_LEAVE_XDATA

   \                                 In  segment BANKED_CODE, align 1, keep-with-next
   \                     ??Subroutine16_0:
   \   000000   12....       LCALL   ??AF_DataRequest?relay
   \   000003   7409         MOV     A,#0x9
   \   000005   22           RET
    913          
    914          /*********************************************************************
    915           * @fn      SampleApp_SendFlashMessage
    916           *
    917           * @brief   Send the flash message to group 1.
    918           *
    919           * @param   flashTime - in milliseconds
    920           *
    921           * @return  none
    922           */

   \                                 In  segment BANKED_CODE, align 1, keep-with-next
    923          void SampleApp_SendFlashMessage( uint16 flashTime )
   \                     SampleApp_SendFlashMessage:
    924          {
   \   000000   74F6         MOV     A,#-0xa
   \   000002   12....       LCALL   ?BANKED_ENTER_XDATA
   \   000005                ; Saved register size: 10
   \   000005                ; Auto size: 3
   \   000005   74FD         MOV     A,#-0x3
   \   000007   12....       LCALL   ?ALLOC_XSTACK8
    925              uint8 buffer[3];
    926              buffer[0] = (uint8)(SampleAppFlashCounter++);
   \   00000A   90....       MOV     DPTR,#SampleAppFlashCounter
   \   00000D   12....       LCALL   ?Subroutine7 & 0xFFFF
   \                     ??CrossCallReturnLabel_12:
   \   000010   90....       MOV     DPTR,#SampleAppFlashCounter
   \   000013   E0           MOVX    A,@DPTR
   \   000014   04           INC     A
   \   000015   F0           MOVX    @DPTR,A
    927              buffer[1] = LO_UINT16( flashTime );
   \   000016   7401         MOV     A,#0x1
   \   000018   12....       LCALL   ?XSTACK_DISP0_8
   \   00001B   EA           MOV     A,R2
   \   00001C   F0           MOVX    @DPTR,A
    928              buffer[2] = HI_UINT16( flashTime );
   \   00001D   7402         MOV     A,#0x2
   \   00001F   12....       LCALL   ?XSTACK_DISP0_8
   \   000022   EB           MOV     A,R3
   \   000023   F0           MOVX    @DPTR,A
    929          
    930              if ( AF_DataRequest( &SampleApp_Flash_DstAddr, &SampleApp_epDesc,
    931                                   SAMPLEAPP_FLASH_CLUSTERID,
    932                                   3,
    933                                   buffer,
    934                                   &SampleApp_TransID,
    935                                   AF_DISCV_ROUTE,
    936                                   AF_DEFAULT_RADIUS ) == afStatus_SUCCESS )
   \   000024                ; Setup parameters for call to function AF_DataRequest
   \   000024   75..1E       MOV     ?V0 + 0,#0x1e
   \   000027   78..         MOV     R0,#?V0 + 0
   \   000029   12....       LCALL   ?PUSH_XSTACK_I_ONE
   \   00002C   75....       MOV     ?V0 + 0,#SampleApp_TransID & 0xff
   \   00002F   75....       MOV     ?V0 + 1,#(SampleApp_TransID >> 8) & 0xff
   \   000032   78..         MOV     R0,#?V0 + 0
   \   000034   12....       LCALL   ?PUSH_XSTACK_I_TWO
   \   000037   7403         MOV     A,#0x3
   \   000039   12....       LCALL   ?XSTACK_DISP0_8
   \   00003C   8582..       MOV     ?V0 + 0,DPL
   \   00003F   8583..       MOV     ?V0 + 1,DPH
   \   000042   78..         MOV     R0,#?V0 + 0
   \   000044   12....       LCALL   ?PUSH_XSTACK_I_TWO
   \   000047   75..03       MOV     ?V0 + 0,#0x3
   \   00004A   75..00       MOV     ?V0 + 1,#0x0
   \   00004D   78..         MOV     R0,#?V0 + 0
   \   00004F   12....       LCALL   ?PUSH_XSTACK_I_TWO
   \   000052   75..02       MOV     ?V0 + 0,#0x2
   \   000055   78..         MOV     R0,#?V0 + 0
   \   000057   12....       LCALL   ?PUSH_XSTACK_I_TWO
   \   00005A   7920         MOV     R1,#0x20
   \   00005C   7C..         MOV     R4,#SampleApp_epDesc & 0xff
   \   00005E   7D..         MOV     R5,#(SampleApp_epDesc >> 8) & 0xff
   \   000060   7A..         MOV     R2,#SampleApp_Flash_DstAddr & 0xff
   \   000062   7B..         MOV     R3,#(SampleApp_Flash_DstAddr >> 8) & 0xff
   \   000064   12....       LCALL   ??Subroutine16_0 & 0xFFFF
   \                     ??CrossCallReturnLabel_36:
   \   000067   12....       LCALL   ?DEALLOC_XSTACK8
    937              {
    938              }
    939              else
    940              {
    941                  // Error occurred in request to send.
    942              }
    943          }
   \   00006A   7403         MOV     A,#0x3
   \   00006C   80..         SJMP    ?Subroutine1
    944          
    945          /*********************************************************************
    946           * @fn      SampleApp_Send_P2P_Message
    947           *
    948           * @brief   point to point.
    949           *          协调器或终端设备通过RF传输数据
    950           *
    951           * @param   none
    952           *
    953           * @return  none
    954           */

   \                                 In  segment BANKED_CODE, align 1, keep-with-next
    955          void SampleApp_Send_P2P_Message( void )
   \                     SampleApp_Send_P2P_Message:
    956          {
   \   000000   74F6         MOV     A,#-0xa
   \   000002   12....       LCALL   ?BANKED_ENTER_XDATA
   \   000005                ; Saved register size: 10
   \   000005                ; Auto size: 11
   \   000005   74F5         MOV     A,#-0xb
   \   000007   12....       LCALL   ?ALLOC_XSTACK8
    957              uint16 length = 0x00;
    958          #if ( ZSTACK_DEVICE_BUILD == DEVICE_BUILD_COORDINATOR )	//协调器
    959              uint8 data[11]="++++++++++";
   \   00000A   85..82       MOV     DPL,?XSP + 0
   \   00000D   85..83       MOV     DPH,?XSP + 1
   \   000010   AC82         MOV     R4,DPL
   \   000012   AD83         MOV     R5,DPH
   \   000014   7583..       MOV     DPH,#(`?<Constant "++++++++++">` >> 8) & 0xff
   \   000017   7582..       MOV     DPL,#`?<Constant "++++++++++">` & 0xff
   \   00001A   740B         MOV     A,#0xb
   \   00001C   12....       LCALL   ?MOVE_LONG8_XDATA_XDATA
    960              length = 11;
    961          #elif ( ZSTACK_DEVICE_BUILD == DEVICE_BUILD_ENDDEVICE )	//终端设备
    962              /*
    963               * 0~3 id
    964               * 4~7 command
    965               * 8   length - n
    966               * 9~n+9 value
    967               */
    968              uint8 i = 0;
    969              uint8 data[13]= {0};
    970              uint8 guid_str[4] = {0};
    971              uint8 short_addr[4] = {0};
    972              SampleApp_GetShortAddrStr(short_addr);
    973              SampleApp_GetGUIDStr(guid_str);
    974              for( i=0; i<4; i++ )
    975              {
    976                  data[i] = guid_str[i];
    977              }
    978              data[4] = 'P';
    979              data[5] = 'I';
    980              data[6] = 'N';
    981              data[7] = 'G';
    982              data[8] = 0x04;
    983              for( i=0; i<4; i++ )
    984              {
    985                  data[i+9] = short_addr[i];
    986              }
    987              length = 13;
    988          #endif
    989            
    990              if ( AF_DataRequest( &SampleApp_P2P_DstAddr, &SampleApp_epDesc,
    991                                 SAMPLEAPP_P2P_CLUSTERID,
    992                                 length,
    993                                 data,
    994                                 &SampleApp_TransID,
    995                                 AF_DISCV_ROUTE,
    996                                 AF_DEFAULT_RADIUS ) == afStatus_SUCCESS )
   \   00001F                ; Setup parameters for call to function AF_DataRequest
   \   00001F   75..1E       MOV     ?V0 + 0,#0x1e
   \   000022   78..         MOV     R0,#?V0 + 0
   \   000024   12....       LCALL   ?PUSH_XSTACK_I_ONE
   \   000027   75....       MOV     ?V0 + 0,#SampleApp_TransID & 0xff
   \   00002A   75....       MOV     ?V0 + 1,#(SampleApp_TransID >> 8) & 0xff
   \   00002D   78..         MOV     R0,#?V0 + 0
   \   00002F   12....       LCALL   ?PUSH_XSTACK_I_TWO
   \   000032   7403         MOV     A,#0x3
   \   000034   12....       LCALL   ?XSTACK_DISP0_8
   \   000037   8582..       MOV     ?V0 + 0,DPL
   \   00003A   8583..       MOV     ?V0 + 1,DPH
   \   00003D   78..         MOV     R0,#?V0 + 0
   \   00003F   12....       LCALL   ?PUSH_XSTACK_I_TWO
   \   000042   75..0B       MOV     ?V0 + 0,#0xb
   \   000045   75..00       MOV     ?V0 + 1,#0x0
   \   000048   78..         MOV     R0,#?V0 + 0
   \   00004A   12....       LCALL   ?PUSH_XSTACK_I_TWO
   \   00004D   75..03       MOV     ?V0 + 0,#0x3
   \   000050   78..         MOV     R0,#?V0 + 0
   \   000052   12....       LCALL   ?PUSH_XSTACK_I_TWO
   \   000055   12....       LCALL   ?Subroutine11 & 0xFFFF
   \                     ??CrossCallReturnLabel_33:
   \   000058   12....       LCALL   ?DEALLOC_XSTACK8
    997              {
    998              }
    999              else
   1000              {
   1001                  // Error occurred in request to send.
   1002              }
   1003          }
   \   00005B   740B         MOV     A,#0xb
   \   00005D   02....       LJMP    ?Subroutine1 & 0xFFFF

   \                                 In  segment BANKED_CODE, align 1, keep-with-next
   \                     ?Subroutine11:
   \   000000   7920         MOV     R1,#0x20
   \   000002   7C..         MOV     R4,#SampleApp_epDesc & 0xff
   \   000004   7D..         MOV     R5,#(SampleApp_epDesc >> 8) & 0xff
   \   000006   7A..         MOV     R2,#SampleApp_P2P_DstAddr & 0xff
   \   000008   7B..         MOV     R3,#(SampleApp_P2P_DstAddr >> 8) & 0xff
   \   00000A                REQUIRE ??Subroutine16_0
   \   00000A                ; // Fall through to label ??Subroutine16_0
   1004          
   1005          /*********************************************************************
   1006           * @fn      SampleApp_Send_C2E_Message
   1007           *
   1008           * @brief   point to point.
   1009           *          协调器或终端设备通过RF传输数据
   1010           *
   1011           * @param   none
   1012           *
   1013           * @return  none
   1014           */
   1015          #if ( ZSTACK_DEVICE_BUILD == DEVICE_BUILD_COORDINATOR )	//协调器

   \                                 In  segment BANKED_CODE, align 1, keep-with-next
   1016          void SampleApp_Send_C2E_Message( uint8* msg )
   \                     SampleApp_Send_C2E_Message:
   1017          {
   \   000000   74F2         MOV     A,#-0xe
   \   000002   12....       LCALL   ?BANKED_ENTER_XDATA
   \   000005                ; Saved register size: 14
   \   000005                ; Auto size: 0
   \   000005   EA           MOV     A,R2
   \   000006   FE           MOV     R6,A
   \   000007   EB           MOV     A,R3
   \   000008   FF           MOV     R7,A
   1018              uint16 length = msg[SRF_POS_LEN] + 9; // n+9
   \   000009   8E82         MOV     DPL,R6
   \   00000B   8F83         MOV     DPH,R7
   \   00000D   E0           MOVX    A,@DPTR
   \   00000E   2409         ADD     A,#0x9
   \   000010   F5..         MOV     ?V0 + 2,A
   \   000012   E4           CLR     A
   \   000013   3400         ADDC    A,#0x0
   \   000015   F5..         MOV     ?V0 + 3,A
   1019              uint16 _shortAddr = 0x00;
   1020              uint8* data;
   1021              uint8 i = 0x00;
   1022              
   1023              //1 验证ID格式，错误串口回复 "FECI"，并return
   1024              //2 验证CMD命令格式，错误串口回复 "FECC"，并return
   1025              //3 验证ShortAddress格式，错误串口回复 "SADE"，并return
   1026              
   1027              data = (uint8*)osal_msg_allocate(length);
   \   000017                ; Setup parameters for call to function osal_msg_allocate
   \   000017   AA..         MOV     R2,?V0 + 2
   \   000019   FB           MOV     R3,A
   \   00001A   12....       LCALL   ??osal_msg_allocate?relay
   \   00001D   8A..         MOV     ?V0 + 0,R2
   \   00001F   8B..         MOV     ?V0 + 1,R3
   1028              
   1029              _shortAddr = SampleUtil_GetShortAddrFromU8Array(&msg[SRF_POS_SA0]);
   1030          #define C2E_DEBUG 0
   1031          #if C2E_DEBUG    
   1032              HalUARTWrite(0x00, &msg[SRF_POS_SA0], 4);
   1033          #endif
   1034              SampleApp_P2P_DstAddr.addr.shortAddr = _shortAddr;//0xDE8A;            //发给终端设备
   \   000021                ; Setup parameters for call to function SampleUtil_GetShortAddrFromU8Array
   \   000021   EE           MOV     A,R6
   \   000022   2405         ADD     A,#0x5
   \   000024   FA           MOV     R2,A
   \   000025   EF           MOV     A,R7
   \   000026   3400         ADDC    A,#0x0
   \   000028   FB           MOV     R3,A
   \   000029   12....       LCALL   ??SampleUtil_GetShortAddrFromU8Array?relay
   \   00002C   90....       MOV     DPTR,#SampleApp_P2P_DstAddr
   \   00002F   EA           MOV     A,R2
   \   000030   F0           MOVX    @DPTR,A
   \   000031   A3           INC     DPTR
   \   000032   EB           MOV     A,R3
   \   000033   F0           MOVX    @DPTR,A
   1035              /*
   1036               * 0~3 guid
   1037               * 4~7 command
   1038               * 8   length
   1039               * 9~n+8 value
   1040               */
   1041              for( i=0;i<4;i++ )
   \   000034   7C00         MOV     R4,#0x0
   1042              {
   1043                  data[i] = msg[SRF_POS_ID0+i];
   \                     ??SampleApp_Send_C2E_Message_0:
   \   000036   8C82         MOV     DPL,R4
   \   000038   A882         MOV     R0,DPL
   \   00003A   EE           MOV     A,R6
   \   00003B   28           ADD     A,R0
   \   00003C   12....       LCALL   ??Subroutine14_0 & 0xFFFF
   1044              }
   \                     ??CrossCallReturnLabel_29:
   \   00003F   A3           INC     DPTR
   \   000040   E0           MOVX    A,@DPTR
   \   000041   C0E0         PUSH    A
   \   000043   12....       LCALL   ?Subroutine9 & 0xFFFF
   \                     ??CrossCallReturnLabel_18:
   \   000046   D0E0         POP     A
   \   000048   F0           MOVX    @DPTR,A
   \   000049   0C           INC     R4
   \   00004A   EC           MOV     A,R4
   \   00004B   C3           CLR     C
   \   00004C   9404         SUBB    A,#0x4
   \   00004E   40E6         JC      ??SampleApp_Send_C2E_Message_0
   1045              for( i=0;i<4;i++ )
   \   000050   7C00         MOV     R4,#0x0
   1046              {
   1047                  data[i+4] = msg[SRF_POS_CMD0+i];
   \                     ??SampleApp_Send_C2E_Message_1:
   \   000052   8C82         MOV     DPL,R4
   \   000054   A882         MOV     R0,DPL
   \   000056   EE           MOV     A,R6
   \   000057   28           ADD     A,R0
   \   000058   F582         MOV     DPL,A
   \   00005A   EF           MOV     A,R7
   \   00005B   12....       LCALL   ?Subroutine8 & 0xFFFF
   1048              }
   \                     ??CrossCallReturnLabel_13:
   \   00005E   E0           MOVX    A,@DPTR
   \   00005F   C0E0         PUSH    A
   \   000061   12....       LCALL   ?Subroutine9 & 0xFFFF
   \                     ??CrossCallReturnLabel_19:
   \   000064   A3           INC     DPTR
   \   000065   A3           INC     DPTR
   \   000066   A3           INC     DPTR
   \   000067   A3           INC     DPTR
   \   000068   D0E0         POP     A
   \   00006A   F0           MOVX    @DPTR,A
   \   00006B   0C           INC     R4
   \   00006C   EC           MOV     A,R4
   \   00006D   C3           CLR     C
   \   00006E   9404         SUBB    A,#0x4
   \   000070   40E0         JC      ??SampleApp_Send_C2E_Message_1
   1049              data[8] = msg[SRF_POS_LEN];
   \   000072   8E82         MOV     DPL,R6
   \   000074   8F83         MOV     DPH,R7
   \   000076   E0           MOVX    A,@DPTR
   \   000077   85..82       MOV     DPL,?V0 + 0
   \   00007A   85..83       MOV     DPH,?V0 + 1
   \   00007D   A3           INC     DPTR
   \   00007E   A3           INC     DPTR
   \   00007F   A3           INC     DPTR
   \   000080   A3           INC     DPTR
   \   000081   A3           INC     DPTR
   \   000082   A3           INC     DPTR
   \   000083   A3           INC     DPTR
   \   000084   A3           INC     DPTR
   \   000085   F0           MOVX    @DPTR,A
   1050              for( i=0;i<data[8];i++ )
   \   000086   7C00         MOV     R4,#0x0
   \   000088   8025         SJMP    ??SampleApp_Send_C2E_Message_2
   1051              {
   1052                  data[9+i] = msg[SRF_POS_DAT0+i];
   \                     ??SampleApp_Send_C2E_Message_3:
   \   00008A   8C82         MOV     DPL,R4
   \   00008C   A882         MOV     R0,DPL
   \   00008E   EE           MOV     A,R6
   \   00008F   28           ADD     A,R0
   \   000090   FA           MOV     R2,A
   \   000091   EF           MOV     A,R7
   \   000092   3400         ADDC    A,#0x0
   \   000094   FB           MOV     R3,A
   \   000095   EA           MOV     A,R2
   \   000096   240D         ADD     A,#0xd
   \   000098   F582         MOV     DPL,A
   \   00009A   EB           MOV     A,R3
   \   00009B   12....       LCALL   ??Subroutine15_0 & 0xFFFF
   1053              }
   \                     ??CrossCallReturnLabel_26:
   \   00009E   E0           MOVX    A,@DPTR
   \   00009F   C0E0         PUSH    A
   \   0000A1   E5..         MOV     A,?V0 + 0
   \   0000A3   28           ADD     A,R0
   \   0000A4   F582         MOV     DPL,A
   \   0000A6   E5..         MOV     A,?V0 + 1
   \   0000A8   12....       LCALL   ?Subroutine8 & 0xFFFF
   \                     ??CrossCallReturnLabel_14:
   \   0000AB   D0E0         POP     A
   \   0000AD   F0           MOVX    @DPTR,A
   \   0000AE   0C           INC     R4
   \                     ??SampleApp_Send_C2E_Message_2:
   \   0000AF   85..82       MOV     DPL,?V0 + 0
   \   0000B2   85..83       MOV     DPH,?V0 + 1
   \   0000B5   A3           INC     DPTR
   \   0000B6   A3           INC     DPTR
   \   0000B7   A3           INC     DPTR
   \   0000B8   A3           INC     DPTR
   \   0000B9   A3           INC     DPTR
   \   0000BA   A3           INC     DPTR
   \   0000BB   A3           INC     DPTR
   \   0000BC   A3           INC     DPTR
   \   0000BD   E0           MOVX    A,@DPTR
   \   0000BE   F8           MOV     R0,A
   \   0000BF   EC           MOV     A,R4
   \   0000C0   C3           CLR     C
   \   0000C1   98           SUBB    A,R0
   \   0000C2   40C6         JC      ??SampleApp_Send_C2E_Message_3
   1054          
   1055          #if C2E_DEBUG
   1056              HalUARTWrite(0x00, "A\n", 2);
   1057          #endif
   1058              if ( AF_DataRequest( &SampleApp_P2P_DstAddr, &SampleApp_epDesc,
   1059                                 SAMPLEAPP_P2P_CLUSTERID,
   1060                                 length,
   1061                                 data,
   1062                                 &SampleApp_TransID,
   1063                                 AF_DISCV_ROUTE,
   1064                                 AF_DEFAULT_RADIUS ) == afStatus_SUCCESS )
   \   0000C4                ; Setup parameters for call to function AF_DataRequest
   \   0000C4   75..1E       MOV     ?V0 + 4,#0x1e
   \   0000C7   78..         MOV     R0,#?V0 + 4
   \   0000C9   12....       LCALL   ?PUSH_XSTACK_I_ONE
   \   0000CC   75....       MOV     ?V0 + 4,#SampleApp_TransID & 0xff
   \   0000CF   75....       MOV     ?V0 + 5,#(SampleApp_TransID >> 8) & 0xff
   \   0000D2   78..         MOV     R0,#?V0 + 4
   \   0000D4   12....       LCALL   ?PUSH_XSTACK_I_TWO
   \   0000D7   78..         MOV     R0,#?V0 + 0
   \   0000D9   12....       LCALL   ?PUSH_XSTACK_I_TWO
   \   0000DC   78..         MOV     R0,#?V0 + 2
   \   0000DE   12....       LCALL   ?PUSH_XSTACK_I_TWO
   \   0000E1   75..03       MOV     ?V0 + 2,#0x3
   \   0000E4   75..00       MOV     ?V0 + 3,#0x0
   \   0000E7   78..         MOV     R0,#?V0 + 2
   \   0000E9   12....       LCALL   ?PUSH_XSTACK_I_TWO
   \   0000EC   12....       LCALL   ?Subroutine11 & 0xFFFF
   \                     ??CrossCallReturnLabel_34:
   \   0000EF   12....       LCALL   ?DEALLOC_XSTACK8
   1065              {
   1066          #if C2E_DEBUG
   1067                  HalUARTWrite(0x00, "B\n", 2);
   1068          #endif
   1069              }
   1070              else
   1071              {
   1072                  // Error occurred in request to send.
   1073          #if C2E_DEBUG
   1074                  HalUARTWrite(0x00, "C\n", 2);
   1075          #endif
   1076              }
   1077              // Release the memory
   1078              osal_msg_deallocate( (uint8 *)data );
   \   0000F2                ; Setup parameters for call to function osal_msg_deallocate
   \   0000F2   AA..         MOV     R2,?V0 + 0
   \   0000F4   AB..         MOV     R3,?V0 + 1
   \   0000F6   12....       LCALL   ??osal_msg_deallocate?relay
   1079          }
   \   0000F9   7F06         MOV     R7,#0x6
   \   0000FB   02....       LJMP    ?BANKED_LEAVE_XDATA

   \                                 In  segment BANKED_CODE, align 1, keep-with-next
   \                     ?Subroutine8:
   \   000000   12....       LCALL   ??Subroutine15_0 & 0xFFFF
   \                     ??CrossCallReturnLabel_27:
   \   000003   A3           INC     DPTR
   \   000004   A3           INC     DPTR
   \   000005   A3           INC     DPTR
   \   000006   A3           INC     DPTR
   \   000007   A3           INC     DPTR
   \   000008   A3           INC     DPTR
   \   000009   A3           INC     DPTR
   \   00000A   A3           INC     DPTR
   \   00000B   A3           INC     DPTR
   \   00000C   22           RET
   1080          #endif  //协调器
   1081          
   1082          /*********************************************************************
   1083           * @fn      SampleApp_Send_E2C_Ack
   1084           *
   1085           * @brief   终端设备消息回复
   1086           *
   1087           * @param   none
   1088           *
   1089           * @return  none
   1090           */
   1091          #if ( ZSTACK_DEVICE_BUILD == DEVICE_BUILD_ENDDEVICE )	//终端设备
   1092          void SampleApp_Send_E2C_Ack( uint8* value, uint8 length )
   1093          {
   1094              uint8  af_len = 9 + length;
   1095              uint8* data;
   1096              uint8 i = 0x00;
   1097              // localEndDevMsg
   1098              /*
   1099               * 0~3   guid
   1100               * 4~7   command
   1101               * 8     length - n
   1102               * 9~8+n value
   1103               */
   1104              
   1105              data = (uint8*)osal_msg_allocate(af_len);
   1106              SampleApp_P2P_DstAddr.addr.shortAddr = 0x0000;            //发给协调器
   1107              // guid
   1108              for( i=0;i<4;i++ )
   1109              {
   1110                  data[i] = localEndDevMsg.guid[i];
   1111              }
   1112              // command
   1113              for( i=0;i<4;i++ )
   1114              {
   1115                  data[i+4] = localEndDevMsg.command[i];
   1116              }
   1117              data[8] = length;
   1118              for( i=0;i<length;i++ )
   1119              {
   1120                  data[9+i] = value[i];
   1121              }
   1122            
   1123              HalUARTWrite(0x00, "E2C_Ack A\n", 10);
   1124              if ( AF_DataRequest( &SampleApp_P2P_DstAddr, &SampleApp_epDesc,
   1125                                 SAMPLEAPP_P2P_CLUSTERID,
   1126                                 af_len,
   1127                                 data,
   1128                                 &SampleApp_TransID,
   1129                                 AF_DISCV_ROUTE,
   1130                                 AF_DEFAULT_RADIUS ) == afStatus_SUCCESS )
   1131              {
   1132                  HalUARTWrite(0x00, "E2C_Ack B\n", 10);
   1133              }
   1134              else
   1135              {
   1136                  // Error occurred in request to send.
   1137                  HalUARTWrite(0x00, "E2C_Ack C\n", 10);
   1138              }
   1139              // Release the memory
   1140              osal_msg_deallocate( (uint8 *)data );
   1141          }
   1142          #endif  //终端设备
   1143          
   1144          /*********************************************************************
   1145           * @fn      SampleApp_Send_E2C_Ack
   1146           *
   1147           * @brief   终端设备消息回复
   1148           *
   1149           * @param   none
   1150           *
   1151           * @return  none
   1152           */
   1153          #if ( ZSTACK_DEVICE_BUILD == DEVICE_BUILD_ENDDEVICE )	//终端设备
   1154          void SampleApp_Send_E2C_PushBtn_Evt( uint8 evt )
   1155          {
   1156              uint8  af_len = 9;
   1157              uint8* data;
   1158              uint8 i = 0x00;
   1159              uint8 guid[4] = {0};
   1160              // localEndDevMsg
   1161              /*
   1162               * 0~3   guid
   1163               * 4~7   command
   1164               * 8     length - n
   1165               * 9~8+n value (目前为空)
   1166               */
   1167              
   1168              //1 申请数据内存空间
   1169              data = (uint8*)osal_msg_allocate(af_len);
   1170              //2 通过宏定义获取Guid
   1171              SampleApp_GetGUIDStr(guid);
   1172              //3 修改发送地址
   1173              SampleApp_P2P_DstAddr.addr.shortAddr = 0x0000;            //发给协调器
   1174              //4 填充发送数据
   1175              // guid
   1176              for( i=0;i<4;i++ )
   1177              {
   1178                  data[i] = guid[i];
   1179              }
   1180              // command
   1181              if( evt == TAKE_MEDIC_EVT )
   1182              {
   1183                  data[4] = 'A';
   1184                  data[5] = 'K';
   1185                  data[6] = 'T';
   1186                  data[7] = 'K';
   1187              }
   1188              else if( evt == ADD_MEDIC_EVT )
   1189              {
   1190                  data[4] = 'A';
   1191                  data[5] = 'K';
   1192                  data[6] = 'A';
   1193                  data[7] = 'D';
   1194              }
   1195              else if( evt == QUERY_MEDIC_EVT )
   1196              {
   1197                  data[4] = 'L';
   1198                  data[5] = 'T';
   1199                  data[6] = 'M';
   1200                  data[7] = 'E';
   1201              }
   1202              else
   1203              {
   1204                  osal_msg_deallocate( (uint8 *)data );
   1205                  return;
   1206              }
   1207              data[8] = 0x00;
   1208            
   1209              HalUARTWrite(0x00, "E2C_Evt A\n", 10);
   1210              if ( AF_DataRequest( &SampleApp_P2P_DstAddr, &SampleApp_epDesc,
   1211                                 SAMPLEAPP_P2P_CLUSTERID,
   1212                                 af_len,
   1213                                 data,
   1214                                 &SampleApp_TransID,
   1215                                 AF_DISCV_ROUTE,
   1216                                 AF_DEFAULT_RADIUS ) == afStatus_SUCCESS )
   1217              {
   1218                  HalUARTWrite(0x00, "E2C_Evt B\n", 10);
   1219              }
   1220              else
   1221              {
   1222                  // Error occurred in request to send.
   1223                  HalUARTWrite(0x00, "E2C_Evt C\n", 10);
   1224              }
   1225              // Release the memory
   1226              osal_msg_deallocate( (uint8 *)data );
   1227          }
   1228          #endif  //终端设备
   1229          
   1230          /***********************************************************
   1231           * @fn      SampleApp_ProcessUartData
   1232           *
   1233           * @brief   将从串口接收到的数据，从串口发出
   1234           *
   1235           * @param   MSGpkt - 数据包内容
   1236           *
   1237           * @return  none
   1238           */
   1239          #if ( ZSTACK_DEVICE_BUILD == DEVICE_BUILD_COORDINATOR )	//协调器

   \                                 In  segment BANKED_CODE, align 1, keep-with-next
   1240          void SampleApp_ProcessUartData(mtOSALSerialData_t *MSGpkt)
   \                     SampleApp_ProcessUartData:
   1241          {  
   \   000000   C082         PUSH    DPL
   \   000002   C083         PUSH    DPH
   \   000004                ; Saved register size: 2
   \   000004                ; Auto size: 0
   1242              //为了正确地进行下面工作，用mtOSALSerialData_t类型来指向整个zigbee数据包(不是串口数据包)
   1243              uint8 *pMsg;
   1244              pMsg = MSGpkt->msg;
   1245              //定义一个指针，指向真正的串口接收数据存放位置，MSGptk里面还有一些别的Header噢。
   1246              switch ( MSGpkt->hdr.event )
   \   000004   8A82         MOV     DPL,R2
   \   000006   8B83         MOV     DPH,R3
   \   000008   E0           MOVX    A,@DPTR
   \   000009   6401         XRL     A,#0x1
   \   00000B   700A         JNZ     ??SampleApp_ProcessUartData_0
   1247              {
   1248                case CMD_SERIAL_MSG://如果是串口消息，则进行下面的处理
   1249                  //HalLedSet( HAL_LED_RED, HAL_LED_MODE_FLASH );//用LED灯指示一下收到数据啦
   1250                  /*
   1251                  uint8 *pBuffer;
   1252                  uint8 datalength;
   1253                  uint8 i;    //定义几个变量，为从接收到的串口包里面提取数据以及写回串口做准备
   1254                  datalength = *pMsg++;
   1255                  //串口包中第一个字节是数据长度噢
   1256                  pBuffer = osal_mem_alloc(datalength);
   1257                  //分配一块内存准备把串口消息数据拿出来
   1258                  if(pBuffer != NULL)
   1259                  {
   1260                    for(i = 0;i < datalength; i++)
   1261                       *pBuffer++ = *pMsg++;
   1262                    //把消息中的串口数据按照datalength数量挨个捞出来放血(放血啥意思？把池子里面那东西捞出来放血，明白不？
   1263                    //HalUARTWrite(0,pBuffer,datalength);    //捞出来放血的串口数据再写回串口，也就是送到串口助手显示
   1264                    osal_mem_free(pBuffer); //动态申请的内存记得用完了free一下噢
   1265                  }
   1266                  */
   1267          #ifdef ZS_DEBUG_UART
   1268                  HalUARTWrite(0x00,"<" ,1);    /* 调试使用 */
   1269                  HalUARTWrite(0x00,&pMsg[SRF_POS_ID0] ,pMsg[MT_RPC_POS_LEN]+12);  /* 调试使用 */
   1270                  HalUARTWrite(0x00,">\n" ,2);  /* 调试使用 */
   1271          #endif
   1272                  SampleApp_Send_C2E_Message(&pMsg[MT_RPC_POS_LEN]);
   \   00000D                ; Setup parameters for call to function SampleApp_Send_C2E_Message
   \   00000D   A3           INC     DPTR
   \   00000E   A3           INC     DPTR
   \   00000F   E0           MOVX    A,@DPTR
   \   000010   FA           MOV     R2,A
   \   000011   A3           INC     DPTR
   \   000012   E0           MOVX    A,@DPTR
   \   000013   FB           MOV     R3,A
   \   000014   12....       LCALL   ??SampleApp_Send_C2E_Message?relay
   1273                  break;
   1274                default:
   1275                  break;
   1276              }
   1277          }
   \                     ??SampleApp_ProcessUartData_0:
   \   000017   D083         POP     DPH
   \   000019   D082         POP     DPL
   \   00001B   02....       LJMP    ?BRET

   \                                 In  segment BANK_RELAYS, align 1
   \                     ??SampleApp_Init?relay:
   \   000000   12....       LCALL   ?BDISPATCH
   \   000003   ......       DC24    SampleApp_Init

   \                                 In  segment BANK_RELAYS, align 1
   \                     ??SampleApp_ProcessEvent?relay:
   \   000000   12....       LCALL   ?BDISPATCH
   \   000003   ......       DC24    SampleApp_ProcessEvent

   \                                 In  segment BANK_RELAYS, align 1
   \                     ??SampleApp_HandleKeys?relay:
   \   000000   12....       LCALL   ?BDISPATCH
   \   000003   ......       DC24    SampleApp_HandleKeys

   \                                 In  segment BANK_RELAYS, align 1
   \                     ??SampleApp_MessageMSGCB?relay:
   \   000000   12....       LCALL   ?BDISPATCH
   \   000003   ......       DC24    SampleApp_MessageMSGCB

   \                                 In  segment BANK_RELAYS, align 1
   \                     ??SampleApp_SendPeriodicMessage?relay:
   \   000000   12....       LCALL   ?BDISPATCH
   \   000003   ......       DC24    SampleApp_SendPeriodicMessage

   \                                 In  segment BANK_RELAYS, align 1
   \                     ??SampleApp_SendFlashMessage?relay:
   \   000000   12....       LCALL   ?BDISPATCH
   \   000003   ......       DC24    SampleApp_SendFlashMessage

   \                                 In  segment BANK_RELAYS, align 1
   \                     ??SampleApp_Send_P2P_Message?relay:
   \   000000   12....       LCALL   ?BDISPATCH
   \   000003   ......       DC24    SampleApp_Send_P2P_Message

   \                                 In  segment BANK_RELAYS, align 1
   \                     ??SampleApp_Send_C2E_Message?relay:
   \   000000   12....       LCALL   ?BDISPATCH
   \   000003   ......       DC24    SampleApp_Send_C2E_Message

   \                                 In  segment BANK_RELAYS, align 1
   \                     ??SampleApp_ProcessUartData?relay:
   \   000000   12....       LCALL   ?BDISPATCH
   \   000003   ......       DC24    SampleApp_ProcessUartData

   \                                 In  segment XDATA_ROM_C, align 1
   \                     `?<Constant "Group 1">`:
   \   000000   47726F75     DB "Group 1"
   \            70203100

   \                                 In  segment XDATA_ROM_C, align 1
   \                     `?<Constant "SampleApp">`:
   \   000000   53616D70     DB "SampleApp"
   \            6C654170
   \            7000    

   \                                 In  segment XDATA_ROM_C, align 1
   \                     `?<Constant "HAL_KEY_SW_1\\n">`:
   \   000000   48414C5F     DB "HAL_KEY_SW_1\012"
   \            4B45595F
   \            53575F31
   \            0A00    

   \                                 In  segment XDATA_ROM_C, align 1
   \                     `?<Constant "HAL_KEY_SW_2\\n">`:
   \   000000   48414C5F     DB "HAL_KEY_SW_2\012"
   \            4B45595F
   \            53575F32
   \            0A00    

   \                                 In  segment XDATA_ROM_C, align 1
   \                     `?<Constant "HAL_KEY_SW_6\\n">`:
   \   000000   48414C5F     DB "HAL_KEY_SW_6\012"
   \            4B45595F
   \            53575F36
   \            0A00    

   \                                 In  segment XDATA_ROM_C, align 1
   \                     `?<Constant {0}>`:
   \   000000   00           DB 0
   \   000001   000000       DB 0, 0, 0

   \                                 In  segment XDATA_ROM_C, align 1
   \                     `?<Constant "PING">`:
   \   000000   50494E47     DB "PING"
   \            00      

   \                                 In  segment XDATA_ROM_C, align 1
   \                     `?<Constant "TKME">`:
   \   000000   544B4D45     DB "TKME"
   \            00      

   \                                 In  segment XDATA_ROM_C, align 1
   \                     `?<Constant "ADME">`:
   \   000000   41444D45     DB "ADME"
   \            00      

   \                                 In  segment XDATA_ROM_C, align 1
   \                     `?<Constant "#">`:
   \   000000   2300         DB "#"

   \                                 In  segment XDATA_ROM_C, align 1
   \                     `?<Constant "\\n">`:
   \   000000   0A00         DB "\012"

   \                                 In  segment XDATA_ROM_C, align 1
   \                     `?<Constant "++++++++++">`:
   \   000000   2B2B2B2B     DB "++++++++++"
   \            2B2B2B2B
   \            2B2B00  
   1278          #endif //协调器
   1279          
   1280          /*********************************************************************
   1281           * @fn      SampleApp_GetShortAddrStr
   1282           *
   1283           * @brief   point to point.
   1284           *
   1285           * @param   addrCA
   1286           *
   1287           * @return  none
   1288           */
   1289          #if ( ZSTACK_DEVICE_BUILD == DEVICE_BUILD_ENDDEVICE )	//终端设备
   1290          void SampleApp_GetGUIDStr(uint8* str)
   1291          {
   1292              uint8 ch;
   1293              uint16 _guid = GUID;
   1294              ch = _guid / 256 / 16;
   1295              ch = ch > 9 ? ch + 'A' - 10 : ch + '0';
   1296              str[0] = ch;
   1297              ch = _guid / 256 % 16;
   1298              ch = ch > 9 ? ch + 'A' - 10 : ch + '0';
   1299              str[1] = ch;
   1300              ch = _guid % 256 / 16;
   1301              ch = ch > 9 ? ch + 'A' - 10 : ch + '0';
   1302              str[2] = ch;
   1303              ch = _guid % 256 % 16;
   1304              ch = ch > 9 ? ch + 'A' - 10 : ch + '0';
   1305              str[3] = ch;
   1306          }
   1307          #endif //终端设备

   Maximum stack usage in bytes:

     Function                       ISTACK PSTACK XSTACK
     --------                       ------ ------ ------
     SampleApp_HandleKeys               0      0     21
       -> HalUARTWrite                  0      0     18
       -> HalUARTWrite                  0      0     18
       -> HalUARTWrite                  0      0     18
     SampleApp_Init                     0      0     23
       -> MT_UartInit                   0      0     40
       -> MT_UartRegisterTaskID         0      0     40
       -> afRegister                    0      0     40
       -> RegisterForKeys               0      0     40
       -> osal_memcpy                   0      0     46
       -> aps_AddGroup                  0      0     40
       -> HalLcdWriteString             0      0     40
       -> SampleApp_Uint16ToStr         0      0     40
       -> HalLcdWriteString             0      0     40
     SampleApp_MessageMSGCB             2      0     28
       -> osal_msg_allocate             0      0     32
       -> SampleUtil_CompareUint8Array
                                        0      0     32
       -> SampleUtil_CompareUint8Array
                                        0      0     32
       -> SampleUtil_CompareUint8Array
                                        0      0     32
       -> HalUARTWrite                  0      0     32
       -> HalUARTWrite                  0      0     32
       -> HalUARTWrite                  0      0     32
       -> HalUARTWrite                  0      0     32
       -> HalUARTWrite                  0      0     32
       -> osal_msg_deallocate           0      0     32
       -> HalUARTWrite                  0      0     32
       -> HalLedBlink                   0      0     32
     SampleApp_ProcessEvent             0      0     12
       -> osal_msg_receive              0      0     24
       -> SampleApp_ProcessUartData     0      0     24
       -> osal_msg_deallocate           0      0     24
       -> osal_msg_receive              0      0     24
       -> SampleApp_HandleKeys          0      0     24
       -> SampleApp_MessageMSGCB        0      0     24
       -> osal_start_timerEx            0      0     24
       -> SampleApp_Send_P2P_Message
                                        0      0     24
       -> osal_rand                     0      0     24
       -> osal_start_timerEx            0      0     24
       -> SampleApp_Send_P2P_Message
                                        0      0     24
     SampleApp_ProcessUartData          2      0     12
       -> SampleApp_Send_C2E_Message
                                        4      0      0
     SampleApp_SendFlashMessage         1      0     22
       -> AF_DataRequest                0      0     44
     SampleApp_SendPeriodicMessage      0      0     19
       -> AF_DataRequest                0      0     38
     SampleApp_Send_C2E_Message         1      0     23
       -> osal_msg_allocate             0      0     28
       -> SampleUtil_GetShortAddrFromU8Array
                                        0      0     28
       -> AF_DataRequest                0      0     46
       -> osal_msg_deallocate           0      0     28
     SampleApp_Send_P2P_Message         2      0     42
       -> AF_DataRequest                0      0     60


   Segment part sizes:

     Function/Label                        Bytes
     --------------                        -----
     SampleApp_ClusterList                    6
     SampleApp_SimpleDesc                    12
     SampleApp_epDesc                         6
     SampleApp_TaskID                         1
     SampleApp_NwkState                       1
     SampleApp_TransID                        1
     SampleApp_Periodic_DstAddr              12
     SampleApp_Flash_DstAddr                 12
     SampleApp_P2P_DstAddr                   12
     SampleApp_Group                         18
     SampleAppPeriodicCounter                 1
     SampleAppFlashCounter                    1
     localEndDevMsg                          13
     localAppMsg                             14
     SampleAppAckEvent                        1
     SampleApp_Init                         258
     SampleApp_ProcessEvent                 190
     ?Subroutine0                             5
     SampleApp_HandleKeys                    65
     SampleApp_MessageMSGCB                 525
     ?Subroutine10                           11
     ?Subroutine6                            12
     ?Subroutine5                             4
     ?Subroutine13                            3
     ??Subroutine14_0                         3
     ??Subroutine15_0                         5
     ?Subroutine4                             6
     ?Subroutine3                             4
     ?Subroutine12                           26
     ?Subroutine2                            14
     ?Subroutine7                             9
     ?Subroutine9                            11
     SampleApp_SendPeriodicMessage           64
     ?Subroutine1                             8
     ??Subroutine16_0                         6
     SampleApp_SendFlashMessage             110
     SampleApp_Send_P2P_Message              96
     ?Subroutine11                           10
     SampleApp_Send_C2E_Message             254
     ?Subroutine8                            13
     SampleApp_ProcessUartData               30
     ??SampleApp_Init?relay                   6
     ??SampleApp_ProcessEvent?relay           6
     ??SampleApp_HandleKeys?relay             6
     ??SampleApp_MessageMSGCB?relay           6
     ??SampleApp_SendPeriodicMessage?relay    6
     ??SampleApp_SendFlashMessage?relay       6
     ??SampleApp_Send_P2P_Message?relay       6
     ??SampleApp_Send_C2E_Message?relay       6
     ??SampleApp_ProcessUartData?relay        6
     ?<Constant "Group 1">                    8
     ?<Constant "SampleApp">                 10
     ?<Constant "HAL_KEY_SW_1\n">            14
     ?<Constant "HAL_KEY_SW_2\n">            14
     ?<Constant "HAL_KEY_SW_6\n">            14
     ?<Constant {0}>                          4
     ?<Constant "PING">                       5
     ?<Constant "TKME">                       5
     ?<Constant "ADME">                       5
     ?<Constant "#">                          2
     ?<Constant "\n">                         2
     ?<Constant "++++++++++">                11

 
 1 742 bytes in segment BANKED_CODE
    54 bytes in segment BANK_RELAYS
   112 bytes in segment XDATA_ROM_C
    93 bytes in segment XDATA_Z
 
 1 796 bytes of CODE  memory
   112 bytes of CONST memory
    93 bytes of XDATA memory

Errors: none
Warnings: none
